(dp0
S'of-work-per'
p1
I0
sS'of-part-of-1'
p2
I1
sS'at-time-during-1'
p3
I2
sS'with-range-of'
p4
I3
sS'use-1'
p5
I4
sS'with-series-of'
p6
I5
sS'aboard-1'
p7
I6
sS'with-time-for'
p8
I7
sS'for-series-of-1'
p9
I8
sS'by-case-per-1'
p10
I9
sS'unto-1'
p11
I962
sS'under'
p12
I11
sS'worth'
p13
I12
sS'whilst-1'
p14
I13
sS'near-beginning-of-1'
p15
I14
sS'whereupon-1'
p16
I15
sS'about-importance-of-1'
p17
I16
sS'for-use-with'
p18
I17
sS'over-1'
p19
I107
sS'of-middle-of'
p20
I19
sS'sbj_tr'
p21
I20
sS'for-cost-per-1'
p22
I21
sS'out-number-of-1'
p23
I22
sS'from-top-of'
p24
I23
sS'style-1'
p25
I24
sS'with-variety-of'
p26
I25
sS'outside-development-in-1'
p27
I26
sS'at-level-in-1'
p28
I27
sS'on-form-for-1'
p29
I28
sS'as-rest-of-1'
p30
I29
sS'of-use-per-1'
p31
I30
sS'opposite-end-of-1'
p32
I31
sS'for-majority-in-1'
p33
I32
sS'as-form-of-1'
p34
I33
sS'by-nature-of-1'
p35
I34
sS'though-1'
p36
I35
sS'above'
p37
I36
sS'of-middle-of-1'
p38
I37
sS'at-level-for'
p39
I38
sS'about-world-of'
p40
I39
sS'for-end-of-1'
p41
I40
sS'than-kind-of-1'
p42
I41
sS'on-basis-with-1'
p43
I42
sS'of-time-in-1'
p44
I43
sS'towards-middle-of'
p45
I44
sS'though-range-of'
p46
I45
sS'help-1'
p47
I46
sS'on-nature-of'
p48
I47
sS'at-time-of-1'
p49
I48
sS'with-result-in'
p50
I49
sS'of-time-as-1'
p51
I50
sS'in-course-of-1'
p52
I51
sS'effect-1'
p53
I52
sS'call'
p54
I53
sS'tell'
p55
I331
sS'from-role-in-1'
p56
I55
sS'as-variety-of-1'
p57
I56
sS'of-group-with'
p58
I57
sS'beside-1'
p59
I58
sS'hold'
p60
I59
sS'as-top-from'
p61
I60
sS'work'
p62
I61
sS'as-top-from-1'
p63
I62
sS'in-matter-of'
p64
I63
sS'make-1'
p65
I64
sS'give'
p66
I65
sS'in-time-for-1'
p67
I409
sS'for-matter-in'
p68
I67
sS'into-group-of'
p69
I68
sS'of-level-of-1'
p70
I69
sS'in-level-of-1'
p71
I70
sS'want'
p72
I420
sS'show-1'
p73
I72
sS'with-question-with-1'
p74
I73
sS'for-cost-of'
p75
I74
sS'from-age-of'
p76
I75
sS'about-number-of'
p77
I76
sS'with-number-of-1'
p78
I77
sS'end'
p79
I78
sS'of-variety-of-1'
p80
I79
sS'provide'
p81
I80
sS'on-series-for-1'
p82
I81
sS'as-development-in'
p83
I82
sS'aboard'
p84
I83
sS'with-group-of'
p85
I84
sS'of-amount-of-1'
p86
I85
sS'past-1'
p87
I86
sS'after'
p88
I87
sS'at-1'
p89
I88
sS'in-rest-of'
p90
I89
sS'of-case-in-1'
p91
I90
sS'amid'
p92
I91
sS'for-effect-in-1'
p93
I92
sS'because-number-of-1'
p94
I530
sS'for-level-of-1'
p95
I94
sS'of-house-in-1'
p96
I95
sS'over'
p97
I96
sS'with-value-in-1'
p98
I97
sS'during-time-as-1'
p99
I98
sS'with-role-of-1'
p100
I99
sS'before'
p101
I100
sS'on-basis-of-1'
p102
I101
sS'history-1'
p103
I102
sS'from-group-of-1'
p104
I103
sS'versus'
p105
I104
sS'because-number-of'
p106
I105
sS'on-basis-of'
p107
I106
sS'at-end-of'
p108
I18
sS'work-1'
p109
I108
sS'be-1'
p110
I109
sS'in-need-of'
p111
I735
sS'as-work-with'
p112
I111
sS'for-need-in'
p113
I112
sS'side'
p114
I113
sS'with-group-as'
p115
I114
sS'mean'
p116
I115
sS'with-cost-of-1'
p117
I116
sS'of-beginning-of'
p118
I117
sS'with-use-on-1'
p119
I118
sS'if-work-of'
p120
I119
sS'of-range-of'
p121
I120
sS'such_as-1'
p122
I121
sS'with-number-on-1'
p123
I122
sS'of-variety-as-1'
p124
I123
sS'in-work-as'
p125
I124
sS're'
p126
I125
sS'appear-1'
p127
I126
sS'across-range-of-1'
p128
I127
sS'in-case-between'
p129
I128
sS'in-form-from-1'
p130
I129
sS'of-back-of-1'
p131
I130
sS'whereupon'
p132
I131
sS'by-presence-of-1'
p133
I132
sS'of-group-with-1'
p134
I133
sS'about-amount-of'
p135
I134
sS'for-group-of-1'
p136
I135
sS'of-time-in'
p137
I136
sS'onto'
p138
I137
sS'during-development-of'
p139
I138
sS'on-time-per'
p140
I139
sS'grade'
p141
I140
sS'for-matter-in-1'
p142
I141
sS'in-age-of-1'
p143
I142
sS'give-1'
p144
I143
sS'of-house-in'
p145
I144
sS'of-idea-about-1'
p146
I145
sS'with-idea-for'
p147
I146
sS'on-case-from'
p148
I147
sS'as-use-of'
p149
I148
sS'about-time-for-1'
p150
I149
sS'pay-1'
p151
I151
sS'with-form-for'
p152
I152
sS'around-world-with'
p153
I153
sS'proportion-1'
p154
I154
sS'from-variety-of-1'
p155
I155
sS'about-nature-of'
p156
I156
sS'towards-centre-of'
p157
I157
sS'in-role-as'
p158
I158
sS'minus'
p159
I159
sS'with-part-in'
p160
I160
sS'whereas-1'
p161
I161
sS'of-presence-of'
p162
I162
sS'part-1'
p163
I163
sS'seem'
p164
I164
sS'in-middle-of'
p165
I165
sS'throughout-1'
p166
I166
sS'of-top-of'
p167
I167
sS'in-group-of'
p168
I168
sS'of-house-around-1'
p169
I169
sS'though'
p170
I170
sS'with-majority-of-1'
p171
I171
sS'Next-1'
p172
I172
sS'for-couple-with-1'
p173
I173
sS'with-use-of-1'
p174
I174
sS'in-series-of-1'
p175
I175
sS'with-course-in-1'
p176
I176
sS'above-1'
p177
I177
sS'version-1'
p178
I178
sS'as-rest-of'
p179
I179
sS'from-level-of'
p180
I180
sS'off-time-of-1'
p181
I503
sS'from-effect-of'
p182
I182
sS'of-importance-of'
p183
I183
sS'without-need-for'
p184
I184
sS'of-nature-of-1'
p185
I1090
sS'of-centre-with-1'
p186
I186
sS'than-role-for-1'
p187
I187
sS'of-couple-inside-1'
p188
I1119
sS'want-1'
p189
I189
sS'around-top-of-1'
p190
I190
sS'of-course-from-1'
p191
I191
sS'from-lot-of'
p192
I192
sS'of-use-of'
p193
I193
sS'at-time-with'
p194
I194
sS'minus-1'
p195
I195
sS'rate-1'
p196
I196
sS'with-group-for-1'
p197
I197
sS'for-house-of'
p198
I198
sS'body-1'
p199
I199
sS'despite'
p200
I200
sS'of-sort-of'
p201
I201
sS'against-form-of'
p202
I202
sS"o'er"
p203
I1238
sS'architecture'
p204
I204
sS'from-kind-of'
p205
I205
sS'about-number-of-1'
p206
I206
sS'than-1'
p207
I207
sS'provide-1'
p208
I208
sS'on-role-of-1'
p209
I752
sS'on-course-for'
p210
I210
sS'with-number-for-1'
p211
I211
sS'of-work-by-1'
p212
I212
sS'in-lot-of-1'
p213
I213
sS'on-value-of'
p214
I214
sS'for-group-within'
p215
I215
sS'of-variety-of'
p216
I1011
sS'as-house-of'
p217
I217
sS'with-form-for-1'
p218
I1302
sS'for-work-in'
p219
I219
sS'between-part-of'
p220
I220
sS'of-effect-for'
p221
I221
sS'at-time-of'
p222
I222
sS'against'
p223
I223
sS'of-basis-for-1'
p224
I224
sS'on-top-up-1'
p225
I225
sS'of-rest-per'
p226
I226
sS'for-use-at'
p227
I512
sS'produce-1'
p228
I228
sS'in-development-of'
p229
I1355
sS'at-work-with-1'
p230
I230
sS'from-lot-with'
p231
I231
sS'on-beginning-of'
p232
I232
sS'life'
p233
I233
sS'if-part-of'
p234
I1431
sS'athwart'
p235
I234
sS'for-amount-than'
p236
I235
sS'as-majority-of-1'
p237
I236
sS'against-group-of-1'
p238
I237
sS'from-kind-of-1'
p239
I238
sS'of-group-of'
p240
I239
sS'near'
p241
I240
sS'underneath-1'
p242
I517
sS'of-work-of'
p243
I242
sS'as-number-of'
p244
I243
sS'out-variety-of-1'
p245
I244
sS'is'
p246
I245
sS'in'
p247
I246
sS'below-level-of'
p248
I247
sS'if'
p249
I248
sS'make'
p250
I249
sS'in-kind-of'
p251
I250
sS'beside'
p252
I251
sS'of-kind-from-1'
p253
I252
sS'unlike-majority-of-1'
p254
I253
sS'for-series-between-1'
p255
I254
sS'in-use-as-1'
p256
I255
sS'of-value-of'
p257
I256
sS'life-1'
p258
I257
sS'on-development-of'
p259
I258
sS'with-group-in-1'
p260
I259
sS'on-matter-of'
p261
I260
sS'need-1'
p262
I261
sS'of-work-of-1'
p263
I262
sS'on-work-by-1'
p264
I523
sS'amount-1'
p265
I264
sS'architecture-1'
p266
I265
sS'portion-1'
p267
I266
sS'with-time-for-1'
p268
I267
sS'about-cost-of-1'
p269
I269
sS'for-role-of-1'
p270
I270
sS'as-middle-of'
p271
I271
sS'of-end-of'
p272
I272
sS'in-work-as-1'
p273
I273
sS'with-effect-of'
p274
I274
sS'for-member-of-1'
p275
I275
sS'with-effect-on'
p276
I276
sS'iobj-1'
p277
I277
sS'from-part-of-1'
p278
I1252
sS'by-number-of-1'
p279
I279
sS'for-use-on-1'
p280
I280
sS'at-number-of'
p281
I281
sS'near-middle-of'
p282
I282
sS'on-use-in'
p283
I283
sS'with-role-in'
p284
I284
sS'for-time-of'
p285
I285
sS'for-kind-in-1'
p286
I286
sS'for-time-on'
p287
I287
sS'at-range-of'
p288
I288
sS'with-house-with'
p289
I289
sS'at-range-on'
p290
I290
sS'in-beginning-of'
p291
I291
sS'for-age-with-1'
p292
I292
sS'for-amount-than-1'
p293
I377
sS'with-development-of'
p294
I770
sS'of-age-of'
p295
I295
sS'post'
p296
I296
sS'between-nature-of'
p297
I297
sS'of-work-per-1'
p298
I298
sS'from-world-of-1'
p299
I299
sS'in-world-of-1'
p300
I300
sS'obj'
p301
I301
sS'in-world-of'
p302
I764
sS'at-part-of-1'
p303
I302
sS'plus'
p304
I303
sS'about-sort-of-1'
p305
I304
sS'worth-1'
p306
I305
sS'behind-work-of'
p307
I306
sS'in-middle-of-1'
p308
I307
sS'against-series-of-1'
p309
I308
sS'at-level-against-1'
p310
I309
sS'from-1'
p311
I461
sS'since-1'
p312
I311
sS'with-series-of-1'
p313
I312
sS'of-number-of'
p314
I773
sS'during-course-of-1'
p315
I475
sS'in-amount-of-1'
p316
I315
sS'per-group-of-1'
p317
I316
sS'at-work-with'
p318
I317
sS'since-age-of-1'
p319
I318
sS'after-end-of-1'
p320
I319
sS'athwart-1'
p321
I320
sS'put-1'
p322
I321
sS'form'
p323
I322
sS'for-kind-in'
p324
I323
sS'by-variety-of-1'
p325
I324
sS'in-range-of-1'
p326
I325
sS'hear'
p327
I326
sS'go-1'
p328
I327
sS'on-nature-of-1'
p329
I328
sS'besides-1'
p330
I329
sS'per-group-of'
p331
I1367
sS'inside'
p332
I330
sS'until'
p333
I54
sS'on-work-with-1'
p334
I332
sS'by-end-of'
p335
I334
sS'meet-1'
p336
I510
sS'in-form-from'
p337
I335
sS'with-effect-on-1'
p338
I336
sS'so-1'
p339
I337
sS'of-time-on-1'
p340
I338
sS'begin-1'
p341
I340
sS'for-use-within'
p342
I341
sS'by-member-of-1'
p343
I342
sS'whereas'
p344
I343
sS'role'
p345
I344
sS'think-1'
p346
I345
sS'of-time-of-1'
p347
I346
sS'on-matter-for'
p348
I347
sS'of-work-with'
p349
I348
sS'for-number-of-1'
p350
I349
sS'in-work-on-1'
p351
I350
sS'on-value-of-1'
p352
I351
sS'for'
p353
I352
sS'of-top-of-1'
p354
I353
sS'within-course-of'
p355
I1019
sS'until-end-of'
p356
I355
sS'with-work-by'
p357
I546
sS'against-group-of'
p358
I357
sS'with-lot-with-1'
p359
I358
sS'in-range-of'
p360
I359
sS'for-sort-of-1'
p361
I360
sS'keep-1'
p362
I362
sS'inside-1'
p363
I363
sS'with-couple-of-1'
p364
I364
sS'in-group-in'
p365
I365
sS'nmod-1'
p366
I366
sS'for-amount-of-1'
p367
I367
sS'up-1'
p368
I368
sS'at-level-with-1'
p369
I369
sS'level'
p370
I370
sS'with-range-as-1'
p371
I371
sS'of-time-than-1'
p372
I372
sS'play-1'
p373
I373
sS'over-age-of-1'
p374
I374
sS'verb-1'
p375
I375
sS'of-bit-of-1'
p376
I376
sS'across-centre-of-1'
p377
I293
sS'during-middle-of'
p378
I378
sS'appear'
p379
I379
sS'from-level-for'
p380
I380
sS'with-matter-of-1'
p381
I381
sS'in-house-of-1'
p382
I294
sS'toward-end-of'
p383
I382
sS'unless-1'
p384
I383
sS'without-effect-of-1'
p385
I384
sS'of-form-of-1'
p386
I385
sS'from-course-in'
p387
I386
sS'with-need-for-1'
p388
I387
sS'of-series-of-1'
p389
I388
sS'of-role-in-1'
p390
I389
sS'on-course-of'
p391
I390
sS'along'
p392
I391
sS'from-member-of-1'
p393
I392
sS'in-result-in'
p394
I393
sS'in-kind-of-1'
p395
I394
sS'for-range-of'
p396
I395
sS'through-use-of'
p397
I396
sS'about-variety-of-1'
p398
I397
sS'in-case-of'
p399
I398
sS'on-bit-of-1'
p400
I399
sS'as_adj_as-1'
p401
I400
sS'in-role-with'
p402
I401
sS'of-case-against-1'
p403
I402
sS'thro'
p404
I361
sS'at-top-of'
p405
I404
sS'in-group-in-1'
p406
I405
sS'thru'
p407
I406
sS'with-time-of-1'
p408
I407
sS'bring-1'
p409
I408
sS'in-couple-of'
p410
I66
sS'for-work-on'
p411
I410
sS'at-time-in'
p412
I411
sS'on-part-of'
p413
I412
sS'as-work-of-1'
p414
I1085
sS'with-age-of'
p415
I414
sS'between-time-for-1'
p416
I415
sS'with-need-in'
p417
I416
sS'for-work-in-1'
p418
I417
sS'of-age-from'
p419
I418
sS'nearest'
p420
I419
sS'lead-1'
p421
I71
sS'on-use-of-1'
p422
I421
sS'after-couple-of'
p423
I422
sS'on-work-by'
p424
I423
sS'with-house-with-1'
p425
I424
sS'although-majority-of-1'
p426
I425
sS'till'
p427
I426
sS'for-result-in-1'
p428
I427
sS'nature-1'
p429
I428
sS'in-case-about-1'
p430
I429
sS'as-back-of'
p431
I430
sS'for-variety-of-1'
p432
I431
sS'produce'
p433
I1215
sS'between-time-of'
p434
I433
sS'hold-1'
p435
I434
sS'into-development-of'
p436
I435
sS'of-work-in'
p437
I436
sS'so'
p438
I437
sS'like-part-of-1'
p439
I438
sS'for-lot-of'
p440
I439
sS'on-level-with-1'
p441
I440
sS'in-majority-of-1'
p442
I441
sS'over-number-of'
p443
I442
sS'of-effect-of'
p444
I443
sS'by-member-of'
p445
I444
sS'vs.-1'
p446
I445
sS'in-use-for-1'
p447
I446
sS'if-part-of-1'
p448
I1275
sS'from-level-of-1'
p449
I448
sS'by-group-of'
p450
I449
sS'of-importance-of-1'
p451
I450
sS'for-use-within-1'
p452
I451
sS'off-1'
p453
I452
sS'of-nature-for'
p454
I1042
sS'from-lot-with-1'
p455
I454
sS'in-beginning-with'
p456
I455
sS'underneath'
p457
I456
sS'from-beginning-of'
p458
I457
sS'half'
p459
I458
sS'of-result-in-1'
p460
I459
sS'such_as'
p461
I460
sS'down'
p462
I310
sS'near-centre-of-1'
p463
I462
sS'as-use-of-1'
p464
I463
sS'within-course-of-1'
p465
I465
sS'in-end-of-1'
p466
I466
sS'en'
p467
I467
sS'from-beginning-of-1'
p468
I468
sS'per-1'
p469
I469
sS'view-1'
p470
I1320
sS'of-member-in-1'
p471
I470
sS'near-middle-of-1'
p472
I471
sS'happen'
p473
I472
sS'run-1'
p474
I473
sS'corner-1'
p475
I474
sS'on-variety-of-1'
p476
I314
sS'with-effect-in'
p477
I476
sS'of-lot-of-1'
p478
I477
sS'in-beginning-with-1'
p479
I478
sS'for-course-on-1'
p480
I479
sS'besides'
p481
I480
sS'as-centre-for'
p482
I481
sS'from-level-for-1'
p483
I482
sS'turn'
p484
I483
sS'from-lot-of-1'
p485
I484
sS'by-nature-of'
p486
I485
sS'view'
p487
I1277
sS'think'
p488
I487
sS'on-end-of'
p489
I488
sS'atop-1'
p490
I1426
sS'versus-1'
p491
I489
sS'against-back-of-1'
p492
I490
sS'of-rest-for'
p493
I491
sS'in-end-of'
p494
I492
sS'from-rest-of'
p495
I493
sS'since-number-of-1'
p496
I494
sS'with-time-of'
p497
I495
sS'without-1'
p498
I496
sS'with-role-of'
p499
I497
sS'circa'
p500
I498
sS'of-case-of'
p501
I499
sS'that'
p502
I500
sS'of-couple-with'
p503
I502
sS'for-couple-with'
p504
I181
sS'of-value-of-1'
p505
I504
sS'of-age-within'
p506
I505
sS'than'
p507
I506
sS'by-1'
p508
I507
sS'on-need-of'
p509
I508
sS'for-part-of'
p510
I509
sS'of-age-from-1'
p511
I150
sS"o'er-1"
p512
I511
sS'prd'
p513
I227
sS'for-use-as'
p514
I513
sS'above-majority-of'
p515
I514
sS'on-development-of-1'
p516
I515
sS'say'
p517
I516
sS'toward-end-of-1'
p518
I241
sS'with-end-of'
p519
I518
sS'at-range-from'
p520
I519
sS'for-need-in-1'
p521
I520
sS'of-age-like-1'
p522
I521
sS'aspect-1'
p523
I522
sS'albeit-1'
p524
I263
sS'take'
p525
I524
sS'sit-1'
p526
I525
sS'about-case-of-1'
p527
I526
sS'as-work-with-1'
p528
I527
sS'on-course-per'
p529
I528
sS'from-world-of'
p530
I529
sS'center-1'
p531
I93
sS'begin'
p532
I531
sS'during-course-of'
p533
I532
sS'opposite'
p534
I533
sS'with-couple-of'
p535
I534
sS'of-rest-of'
p536
I535
sS'of-part-of'
p537
I536
sS'of-couple-in'
p538
I537
sS'in-matter-of-1'
p539
I538
sS'on-bit-of'
p540
I539
sS'as-part-of-1'
p541
I540
sS'point-1'
p542
I541
sS'ago-1'
p543
I542
sS'of-majority-of'
p544
I543
sS'end-1'
p545
I544
sS'during-middle-of-1'
p546
I545
sS'plus-1'
p547
I356
sS'structure-1'
p548
I547
sS'in-result-in-1'
p549
I548
sS'from-end-of-1'
p550
I549
sS'show'
p551
I550
sS'for-number-near-1'
p552
I551
sS'corner'
p553
I552
sS'in-age-of'
p554
I553
sS'proportion'
p555
I554
sS'behind'
p556
I555
sS'behind-work-of-1'
p557
I556
sS'of-use-of-1'
p558
I557
sS'amongst-group-of-1'
p559
I558
sS'down-1'
p560
I559
sS'nearest-1'
p561
I560
sS'get'
p562
I848
sS'unlike-majority-of'
p563
I562
sS'by-use-of'
p564
I563
sS'against-couple-of'
p565
I564
sS'per-level-with'
p566
I565
sS'although-1'
p567
I566
sS'of-development-in'
p568
I567
sS'for-member-of'
p569
I568
sS'of-centre-of'
p570
I569
sS'weight-1'
p571
I570
sS'at-back-of-1'
p572
I571
sS'on-use-as-1'
p573
I572
sS'state-1'
p574
I573
sS'by-case-per'
p575
I574
sS'since-age-of'
p576
I575
sS'at-level-in'
p577
I576
sS'outside'
p578
I577
sS'with-development-in'
p579
I578
sS'with-presence-of'
p580
I579
sS'with-member-of'
p581
I580
sS'between'
p582
I581
sS'across'
p583
I582
sS'towards-cost-of-1'
p584
I583
sS'from-work-of-1'
p585
I584
sS'with-sort-of'
p586
I585
sS'since-role-in'
p587
I586
sS'of-couple-with-1'
p588
I587
sS'during-age-in'
p589
I588
sS'of-nature-for-1'
p590
I589
sS'come'
p591
I590
sS'towards-middle-of-1'
p592
I591
sS'for-use-as-1'
p593
I592
sS'during-time-in'
p594
I593
sS'among'
p595
I595
sS'color'
p596
I596
sS'happen-1'
p597
I597
sS'from-end-of'
p598
I598
sS'wheresoever-1'
p599
I599
sS'about-range-of-1'
p600
I600
sS'about-value-of-1'
p601
I601
sS'with'
p602
I602
sS'so-kind-of'
p603
I603
sS'on-course-in'
p604
I604
sS'unlike-1'
p605
I605
sS'sound'
p606
I606
sS'by-variety-of'
p607
I607
sS'along-1'
p608
I608
sS'within-1'
p609
I609
sS'on-course-of-1'
p610
I610
sS'for-part-of-1'
p611
I611
sS'iobj'
p612
I612
sS'of-need-of-1'
p613
I613
sS'of-member-of'
p614
I614
sS'by-use-of-1'
p615
I774
sS'as-group-of-1'
p616
I616
sS'per-level-with-1'
p617
I617
sS'for-sort-of'
p618
I618
sS'pay'
p619
I619
sS'with-matter-of'
p620
I1095
sS'out-number-of'
p621
I621
sS'of-role-in'
p622
I622
sS'vis-a-vis'
p623
I623
sS'for-value-of'
p624
I624
sS'with-use-in'
p625
I625
sS'with-value-in'
p626
I626
sS'with-need-of'
p627
I627
sS'through-use-of-1'
p628
I628
sS'without'
p629
I629
sS'from-variety-of'
p630
I630
sS'at-beginning-of'
p631
I631
sS'against-sort-of-1'
p632
I632
sS'in-use-of-1'
p633
I633
sS'aspect'
p634
I634
sS'beyond-1'
p635
I635
sS'with-need-from-1'
p636
I636
sS'in-use-of'
p637
I637
sS'amidst-1'
p638
I638
sS'have-1'
p639
I639
sS'except'
p640
I640
sS'say-1'
p641
I641
sS'for-use-by'
p642
I642
sS'of-basis-for'
p643
I643
sS'from-house-of'
p644
I644
sS'around'
p645
I645
sS'among-member-of-1'
p646
I646
sS'as-group-of'
p647
I647
sS'of-rest-for-1'
p648
I648
sS'cause-1'
p649
I649
sS'with-question-about-1'
p650
I650
sS'of-use-during'
p651
I651
sS'with-rest-of-1'
p652
I652
sS'with-range-as'
p653
I653
sS'after-end-of'
p654
I654
sS'of-group-of-1'
p655
I655
sS'over-course-of-1'
p656
I656
sS'like-kind-of'
p657
I657
sS'with-back-of'
p658
I658
sS'with-kind-of'
p659
I659
sS'without-use-of'
p660
I660
sS'than-time-by-1'
p661
I661
sS'from-group-in'
p662
I662
sS'hear-1'
p663
I663
sS'on'
p664
I664
sS'of'
p665
I665
sS'towards-top-of-1'
p666
I666
sS'by-importance-of-1'
p667
I667
sS'become-1'
p668
I668
sS'above-majority-of-1'
p669
I669
sS'from-number-of'
p670
I670
sS'on-course-for-1'
p671
I671
sS'area'
p672
I672
sS'start'
p673
I673
sS'of-number-of-1'
p674
I674
sS'though-range-of-1'
p675
I675
sS'with-question-about'
p676
I676
sS'amongst'
p677
I678
sS'with-range-of-1'
p678
I679
sS'of-end-of-1'
p679
I680
sS'though-form-of'
p680
I501
sS'like-1'
p681
I682
sS'majority-1'
p682
I683
sS'if-number-of'
p683
I684
sS'nature'
p684
I1287
sS'as-series-of'
p685
I685
sS'for-use-with-1'
p686
I686
sS'about-house-for'
p687
I687
sS'of-lot-of'
p688
I688
sS'as'
p689
I689
sS'for-course-on'
p690
I690
sS'at'
p691
I691
sS'as-centre-of'
p692
I1328
sS'with-1'
p693
I693
sS'for-course-of'
p694
I694
sS'along-top-of'
p695
I1335
sS'with-need-for'
p696
I696
sS'at-level-except-1'
p697
I1343
sS'with-course-of'
p698
I698
sS'across-1'
p699
I699
sS'with-course-on'
p700
I700
sS'in-role-with-1'
p701
I701
sS'with-member-of-1'
p702
I702
sS'for-development-in-1'
p703
I703
sS'with-rest-of'
p704
I704
sS'on-course-per-1'
p705
I705
sS'thru-1'
p706
I706
sS'astride-1'
p707
I707
sS'take-1'
p708
I708
sS'around-back-of'
p709
I709
sS'for-group-within-1'
p710
I710
sS'from-part-of'
p711
I711
sS'than-number-of-1'
p712
I712
sS'until-1'
p713
I713
sS'from-couple-of'
p714
I714
sS'as-centre-for-1'
p715
I715
sS'amongst-1'
p716
I716
sS'for-time-since-1'
p717
I717
sS'below-1'
p718
I718
sS'for-use-in-1'
p719
I719
sS'thro-1'
p720
I720
sS'for-time-from-1'
p721
I721
sS'form-1'
p722
I722
sS'as-result-of'
p723
I723
sS'during-rest-of'
p724
I724
sS'for-course-by-1'
p725
I725
sS'with-level-of'
p726
I726
sS'of-time-on'
p727
I727
sS'sbj_tr-1'
p728
I728
sS'of-time-of'
p729
I729
sS'in-level-of'
p730
I730
sS'verb'
p731
I731
sS'whether-1'
p732
I732
sS'surface-1'
p733
I733
sS'on-basis-for'
p734
I734
sS'of-kind-of-1'
p735
I110
sS'at-level-from-1'
p736
I736
sS'feel-1'
p737
I737
sS'with-need-within-1'
p738
I738
sS'from-series-of-1'
p739
I739
sS'in-centre-of-1'
p740
I740
sS'towards-top-of'
p741
I741
sS'in-majority-of'
p742
I742
sS'past'
p743
I743
sS'go'
p744
I1083
sS'rate'
p745
I745
sS'on-work-of'
p746
I746
sS'with-level-of-1'
p747
I747
sS'because-1'
p748
I1084
sS'section'
p749
I749
sS'version'
p750
I750
sS'against-series-of'
p751
I751
sS'of-couple-in-1'
p752
I209
sS'of-need-of'
p753
I753
sS'in-back-of-1'
p754
I754
sS'through-time-of'
p755
I755
sS'from-middle-of-1'
p756
I756
sS'around-group-of'
p757
I757
sS'at-top-of-1'
p758
I758
sS'of-level-for'
p759
I759
sS'amount'
p760
I760
sS'in-use-as'
p761
I761
sS'of-role-of-1'
p762
I762
sS'for-development-of'
p763
I763
sS'via'
p764
I464
sS'through-end-of'
p765
I765
sS'between-part-of-1'
p766
I766
sS'from-effect-of-1'
p767
I767
sS'as-series-of-1'
p768
I768
sS'for-role-of'
p769
I769
sS'of-case-against'
p770
I1058
sS'in-centre-of'
p771
I771
sS'v.-1'
p772
I772
sS'as-basis-for-1'
p773
I313
sS'between-end-of-1'
p774
I615
sS'in-presence-of-1'
p775
I775
sS'in-possibility-of'
p776
I776
sS'in-back-of'
p777
I777
sS'before-1'
p778
I778
sS'composition-1'
p779
I779
sS'of-level-of'
p780
I780
sS'with-development-of-1'
p781
I781
sS'of-back-of'
p782
I782
sS'with-sort-of-1'
p783
I783
sS'during-development-of-1'
p784
I784
sS'with-work-by-1'
p785
I785
sS'during-age-in-1'
p786
I786
sS'from-top-of-1'
p787
I787
sS'history'
p788
I788
sS'from-amount-of-1'
p789
I789
sS'over-number-of-1'
p790
I790
sS'if-number-of-1'
p791
I791
sS'with-course-on-1'
p792
I792
sS'for-form-of-1'
p793
I793
sS'of-use-in'
p794
I794
sS'quality-1'
p795
I795
sS'through-middle-of-1'
p796
I796
sS'in-top-of'
p797
I797
sS'for-number-near'
p798
I798
sS'sense'
p799
I799
sS'in-possibility-of-1'
p800
I800
sS'with-role-in-1'
p801
I801
sS'on-top-up'
p802
I802
sS'above-level-with-1'
p803
I803
sS'of-idea-of-1'
p804
I804
sS'since-role-in-1'
p805
I805
sS'with-need-in-1'
p806
I806
sS'from-work-of'
p807
I807
sS'of-importance-for-1'
p808
I808
sS'in-work-with'
p809
I809
sS'up-series-of'
p810
I810
sS'during-time-in-1'
p811
I811
sS'for-time-since'
p812
I812
sS'without-use-of-1'
p813
I813
sS'for-age-with'
p814
I814
sS'in-house-of'
p815
I815
sS'on-part-of-1'
p816
I816
sS'on-use-in-1'
p817
I817
sS'at-level-except'
p818
I1334
sS'help'
p819
I819
sS'of-role-of'
p820
I820
sS'through'
p821
I821
sS'for-amount-of'
p822
I822
sS'in-beginning-of-1'
p823
I823
sS'style'
p824
I824
sS'for-course-of-1'
p825
I825
sS'along-top-of-1'
p826
I826
sS'in-course-of'
p827
I827
sS'of-majority-of-1'
p828
I828
sS'against-1'
p829
I829
sS'of-variety-as'
p830
I830
sS'from-back-of'
p831
I831
sS'with-back-against-1'
p832
I832
sS'for-group-of'
p833
I833
sS'by-presence-of'
p834
I834
sS'near-centre-of'
p835
I835
sS'down-centre-of'
p836
I836
sS'with-use-in-1'
p837
I837
sS'weight'
p838
I838
sS'for-work-on-1'
p839
I839
sS'at-time-in-1'
p840
I840
sS'of-course-of-1'
p841
I841
sS'beyond'
p842
I842
sS'for-bit-of'
p843
I843
sS'from-back-of-1'
p844
I844
sS'since'
p845
I845
sS'next-1'
p846
I1101
sS'from-work-with-1'
p847
I847
sS'than-time-by'
p848
I849
sS'role-1'
p849
I850
sS'sbj_intr-1'
p850
I851
sS'near-beginning-of'
p851
I852
sS'of-case-of-1'
p852
I853
sS'as-variety-of'
p853
I854
sS'put'
p854
I855
sS'for-work-as'
p855
I856
sS'for-course-by'
p856
I857
sS'from-time-of'
p857
I858
sS'with-lot-of-1'
p858
I873
sS'of-kind-of'
p859
I861
sS'feel'
p860
I862
sS'of-amount-of'
p861
I863
sS'of-work-with-1'
p862
I864
sS'like-part-of'
p863
I865
sS'outside-development-in'
p864
I866
sS'of-use-in-1'
p865
I867
sS'for-work-with-1'
p866
I868
sS'from-role-in'
p867
I869
sS'temperature'
p868
I870
sS'for-level-of'
p869
I871
sS'within-time-of-1'
p870
I872
sS'near-end-of-1'
p871
I860
sS'on-work-of-1'
p872
I874
sS'with-variety-in'
p873
I875
sS'in-importance-of'
p874
I876
sS'about-1'
p875
I877
sS'find-1'
p876
I878
sS'till-1'
p877
I879
sS'against-back-of'
p878
I880
sS'part'
p879
I881
sS'believe'
p880
I882
sS'with-work-on'
p881
I883
sS'on-course-in-1'
p882
I1347
sS'for-time-in-1'
p883
I885
sS'albeit'
p884
I886
sS'mean-1'
p885
I887
sS'color-1'
p886
I888
sS'at-time-with-1'
p887
I889
sS'with-need-of-1'
p888
I890
sS'of-house-of-1'
p889
I891
sS'with-variety-in-1'
p890
I892
sS'in-couple-of-1'
p891
I893
sS'as-house-of-1'
p892
I894
sS'toward'
p893
I895
sS'alongside'
p894
I896
sS'at-level-below'
p895
I897
sS'in-result-of-1'
p896
I898
sS'with-group-as-1'
p897
I899
sS'of-kind-from'
p898
I900
sS'up-time-from'
p899
I901
sS'majority'
p900
I902
sS'between-nature-of-1'
p901
I903
sS'against-couple-of-1'
p902
I904
sS'play'
p903
I905
sS'towards'
p904
I906
sS'for-cost-of-1'
p905
I907
sS'as-basis-of'
p906
I908
sS'get-1'
p907
I909
sS'at-level-for-1'
p908
I910
sS'despite-1'
p909
I911
sS'with-lot-of'
p910
I1153
sS'between-age-of'
p911
I912
sS'after-couple-of-1'
p912
I913
sS'around-back-of-1'
p913
I914
sS'find'
p914
I915
sS'of-centre-with'
p915
I916
sS'side-1'
p916
I917
sS'with-majority-of'
p917
I918
sS'sense-1'
p918
I919
sS'within-time-of'
p919
I920
sS'with-course-in'
p920
I921
sS'for-time-in'
p921
I922
sS'than-role-for'
p922
I923
sS'into-group-for'
p923
I681
sS'post-1'
p924
I1171
sS'near-back-of'
p925
I925
sS'during'
p926
I926
sS'on-beginning-of-1'
p927
I927
sS'coord'
p928
I928
sS'about-need-for-1'
p929
I929
sS'beneath-1'
p930
I930
sS'with-group-in'
p931
I931
sS'set'
p932
I932
sS'at-centre-of-1'
p933
I933
sS'section-1'
p934
I934
sS'in-development-of-1'
p935
I1229
sS'mode-1'
p936
I936
sS'see'
p937
I937
sS'as-beginning-with-1'
p938
I938
sS'in-time-of'
p939
I939
sS'in-form-of-1'
p940
I940
sS'of-age-in-1'
p941
I941
sS'with-back-against'
p942
I942
sS'of-time-as'
p943
I943
sS'for-house-of-1'
p944
I944
sS'once-1'
p945
I945
sS'from-house-of-1'
p946
I946
sS'during-1'
p947
I947
sS'down-centre-of-1'
p948
I948
sS'of-idea-about'
p949
I949
sS'over-range-of-1'
p950
I950
sS'of-member-in'
p951
I951
sS'on-lot-of-1'
p952
I952
sS'point'
p953
I953
sS'let-1'
p954
I954
sS'up-series-of-1'
p955
I955
sS'with-group-of-1'
p956
I956
sS'at-range-from-1'
p957
I957
sS'of-range-of-1'
p958
I958
sS'upon-end-of-1'
p959
I959
sS'into-middle-of'
p960
I960
sS'through-time-of-1'
p961
I961
sS'as-beginning-with'
p962
I10
sS'tell-1'
p963
I963
sS'look'
p964
I964
sS'on-matter-of-1'
p965
I561
sS'towards-centre-of-1'
p966
I965
sS'of-beginning-of-1'
p967
I966
sS'while'
p968
I967
sS'toward-1'
p969
I968
sS'except-1'
p970
I969
sS'for-role-as'
p971
I970
sS'from-number-of-1'
p972
I971
sS'on-cost-of'
p973
I972
sS'with-part-in-1'
p974
I973
sS'for-end-of'
p975
I974
sS'at-time-during'
p976
I975
sS'about-world-of-1'
p977
I976
sS'of-level-in'
p978
I977
sS'for-form-of'
p979
I978
sS'as-form-of'
p980
I979
sS'in-case-of-1'
p981
I980
sS'composition'
p982
I981
sS'from-range-of'
p983
I982
sS'development'
p984
I983
sS'if-work-of-1'
p985
I984
sS'around-1'
p986
I985
sS'for-work-with'
p987
I986
sS'of-importance-for'
p988
I987
sS'of-house-of'
p989
I988
sS'if-idea-of'
p990
I989
sS're-1'
p991
I990
sS'for-variety-of'
p992
I991
sS'edge'
p993
I992
sS'on-series-of-1'
p994
I993
sS'into-middle-of-1'
p995
I994
sS'unto'
p996
I995
sS'near-top-of'
p997
I996
sS'with-member-in-1'
p998
I997
sS'in-course-for-1'
p999
I998
sS'while-1'
p1000
I999
sS'with-bit-for-1'
p1001
I1000
sS'for-range-of-1'
p1002
I1001
sS'from-work-in'
p1003
I1002
sS'of-sort-of-1'
p1004
I1003
sS'add-1'
p1005
I1004
sS'across-centre-of'
p1006
I1005
sS'on-kind-of-1'
p1007
I1006
sS'start-1'
p1008
I1007
sS'sound-1'
p1009
I1008
sS'prd-1'
p1010
I1009
sS'of-age-for'
p1011
I1010
sS'try-1'
p1012
I1313
sS'with-need-than'
p1013
I1013
sS'come-1'
p1014
I1125
sS'in-presence-of'
p1015
I1015
sS'with-presence-of-1'
p1016
I1016
sS'between-range-of-1'
p1017
I1017
sS'in-work-with-1'
p1018
I1018
sS'of-centre-of-1'
p1019
I354
sS'per'
p1020
I1020
sS'for-use-in'
p1021
I1021
sS'of-development-in-1'
p1022
I1022
sS'with-question-with'
p1023
I1023
sS'sbj_intr'
p1024
I1024
sS'be'
p1025
I1025
sS'run'
p1026
I1026
sS'throughout-course-of'
p1027
I1027
sS'through-end-of-1'
p1028
I1028
sS'as-1'
p1029
I1127
sS'become'
p1030
I1366
sS'for-role-as-1'
p1031
I1031
sS'for-development-of-1'
p1032
I1032
sS'by'
p1033
I1033
sS'around-group-of-1'
p1034
I1034
sS'amongst-group-of'
p1035
I1359
sS'as-number-of-1'
p1036
I1036
sS'for-course-for'
p1037
I1037
sS'know-1'
p1038
I1038
sS'for-cost-per'
p1039
I1039
sS'on-lot-of'
p1040
I1040
sS'in-time-of-1'
p1041
I1041
sS'into'
p1042
I453
sS'within'
p1043
I1043
sS'over-range-of'
p1044
I1044
sS'seem-1'
p1045
I1045
sS'next'
p1046
I1046
sS'for-lot-of-1'
p1047
I1047
sS'amidst'
p1048
I1048
sS'in-group-of-1'
p1049
I1049
sS'in-case-between-1'
p1050
I1050
sS'in-part-of'
p1051
I1051
sS'atop'
p1052
I1052
sS'towards-1'
p1053
I1053
sS'for-couple-of'
p1054
I1054
sS'at-level-with'
p1055
I1055
sS'at-time-as'
p1056
I1056
sS'of-rest-of-1'
p1057
I1057
sS'up'
p1058
I333
sS'nmod'
p1059
I1059
sS'at-level-from'
p1060
I1060
sS'on-form-for'
p1061
I1061
sS'through-middle-of'
p1062
I1062
sS'from-couple-of-1'
p1063
I1063
sS'for-kind-of-1'
p1064
I1064
sS'with-possibility-of-1'
p1065
I1065
sS'on-end-of-1'
p1066
I1066
sS'for-result-in'
p1067
I1067
sS'of-work-in-1'
p1068
I1068
sS'from-work-with'
p1069
I1069
sS'with-effect-in-1'
p1070
I1070
sS'in-1'
p1071
I1071
sS'although-number-of-1'
p1072
I1072
sS'with-group-for'
p1073
I1073
sS'structure'
p1074
I1074
sS'ago'
p1075
I1075
sS'of-cost-plus'
p1076
I1076
sS'age'
p1077
I1077
sS'as-basis-of-1'
p1078
I1138
sS'at-majority-of-1'
p1079
I1079
sS'from-time-of-1'
p1080
I1080
sS'once'
p1081
I1081
sS'about-range-of'
p1082
I1082
sS'with-development-in-1'
p1083
I1012
sS'among-member-of'
p1084
I744
sS'on-effect-on-1'
p1085
I748
sS'for-work-of'
p1086
I413
sS'after-kind-of'
p1087
I1086
sS'opposite-end-of'
p1088
I1087
sS'on-variety-of'
p1089
I1088
sS'for-series-of'
p1090
I1089
sS'in-variety-of-1'
p1091
I185
sS'call-1'
p1092
I1091
sS'at-time-as-1'
p1093
I1093
sS'under-1'
p1094
I1094
sS'coord-1'
p1095
I620
sS'on-effect-of-1'
p1096
I1096
sS'of-idea-as-1'
p1097
I1097
sS'between-time-for'
p1098
I1098
sS'into-variety-of-1'
p1099
I1099
sS'try'
p1100
I1100
sS'with-need-within'
p1101
I846
sS'towards-end-of-1'
p1102
I1102
sS'above-level-with'
p1103
I1103
sS'of-level-in-1'
p1104
I1104
sS'of-case-in'
p1105
I1105
sS'about-time-for'
p1106
I1106
sS'of-effect-for-1'
p1107
I1107
sS'of-effect-of-1'
p1108
I1108
sS'like-kind-of-1'
p1109
I1109
sS'in-group-as-1'
p1110
I1110
sS'on-use-as'
p1111
I1111
sS'on-back-of-1'
p1112
I1112
sS'in-form-of'
p1113
I1113
sS'body'
p1114
I1114
sS'towards-cost-of'
p1115
I1115
sS'let'
p1116
I1116
sS'over-couple-of'
p1117
I1117
sS'along-part-of'
p1118
I1118
sS'for-course-for-1'
p1119
I188
sS'outside-1'
p1120
I1120
sS'in-work-on'
p1121
I1121
sS'for-number-of'
p1122
I1122
sS'of-bit-of'
p1123
I1123
sS'by-end-of-1'
p1124
I1124
sS'development-1'
p1125
I1014
sS'if-1'
p1126
I1126
sS'use'
p1127
I1029
sS'from'
p1128
I1128
sS'of-idea-as'
p1129
I1129
sS'in-number-of-1'
p1130
I1130
sS'at-number-of-1'
p1131
I1131
sS'of-couple-of-1'
p1132
I1132
sS'from-series-of'
p1133
I1133
sS'for-rest-of'
p1134
I1134
sS'with-back-of-1'
p1135
I1135
sS'in-use-for'
p1136
I1136
sS'in-need-of-1'
p1137
I1137
sS'for-effect-in'
p1138
I1078
sS'level-1'
p1139
I1139
sS'on-use-of'
p1140
I1140
sS'without-effect-of'
p1141
I1141
sS'on-time-per-1'
p1142
I1142
sS'grade-1'
p1143
I1143
sS'as-work-of'
p1144
I1144
sS'at-level-of-1'
p1145
I1145
sS'throughout-course-of-1'
p1146
I1146
sS'meet'
p1147
I1147
sS'for-majority-of-1'
p1148
I1148
sS'in-series-of'
p1149
I1149
sS'between-age-of-1'
p1150
I1150
sS'of-range-with-1'
p1151
I1151
sS'half-1'
p1152
I1152
sS'near-end-of'
p1153
I594
sS'with-course-of-1'
p1154
I1154
sS'of-group-for'
p1155
I1155
sS'of-member-of-1'
p1156
I1156
sS'sit'
p1157
I1157
sS'upon-1'
p1158
I1158
sS'of-work-by'
p1159
I1159
sS'for-1'
p1160
I1160
sS'for-time-on-1'
p1161
I1161
sS'at-end-of-1'
p1162
I1162
sS'with-variety-of-1'
p1163
I1163
sS'from-range-of-1'
p1164
I1164
sS'between-range-of'
p1165
I1165
sS'about-cost-of'
p1166
I1166
sS'of-development-of'
p1167
I1167
sS'among-group-of-1'
p1168
I1168
sS'at-range-on-1'
p1169
I1169
sS'for-work-of-1'
p1170
I1170
sS'of-age-in'
p1171
I924
sS'by-group-of-1'
p1172
I1172
sS'at-range-of-1'
p1173
I1173
sS'than-number-of'
p1174
I1174
sS'for-use-on'
p1175
I1175
sS'although-number-of'
p1176
I1176
sS'for-kind-of'
p1177
I1177
sS'towards-end-of'
p1178
I1178
sS'than-kind-of'
p1179
I1179
sS'move'
p1180
I1180
sS'whilst'
p1181
I1181
sS'about-amount-of-1'
p1182
I1182
sS'from-rest-of-1'
p1183
I1183
sS'vis-a-vis-1'
p1184
I1184
sS'for-rest-of-1'
p1185
I1185
sS'of-rest-per-1'
p1186
I1186
sS'at-level-of'
p1187
I1187
sS'with-age-of-1'
p1188
I1188
sS'of-house-around'
p1189
I1189
sS'for-value-of-1'
p1190
I1190
sS'without-need-for-1'
p1191
I1191
sS'about-house-for-1'
p1192
I1192
sS'magnitude'
p1193
I1193
sS'mode'
p1194
I1194
sS'beneath'
p1195
I1195
sS'at-centre-of'
p1196
I1196
sS'for-time-of-1'
p1197
I1197
sS'of-idea-from'
p1198
I1198
sS'Next'
p1199
I1199
sS'among-1'
p1200
I1200
sS'out'
p1201
I1201
sS'out-variety-of'
p1202
I1202
sS'in-lot-of'
p1203
I1203
sS'edge-1'
p1204
I1204
sS'cause'
p1205
I1205
sS'on-kind-of'
p1206
I1206
sS'from-age-of-1'
p1207
I1207
sS'as-centre-of-1'
p1208
I1208
sS'that-1'
p1209
I1209
sS'if-idea-of-1'
p1210
I1210
sS'with-work-on-1'
p1211
I1211
sS'with-amount-of-1'
p1212
I1212
sS'on-case-from-1'
p1213
I1213
sS'keep'
p1214
I1214
sS'for-time-with-1'
p1215
I432
sS'on-1'
p1216
I1216
sS'in-role-of-1'
p1217
I1217
sS'about-importance-of'
p1218
I1218
sS'temperature-1'
p1219
I1219
sS'with-effect-of-1'
p1220
I1405
sS'quality'
p1221
I1221
sS'in-house-with-1'
p1222
I1222
sS'since-number-of'
p1223
I1223
sS'circa-1'
p1224
I1224
sS'of-time-per-1'
p1225
I1225
sS'obj-1'
p1226
I1226
sS'against-sort-of'
p1227
I1227
sS'in-result-of'
p1228
I1228
sS'at-level-against'
p1229
I935
sS'in-top-of-1'
p1230
I1230
sS'on-top-of'
p1231
I1231
sS'with-use-of'
p1232
I1232
sS'of-time-with-1'
p1233
I1233
sS'of-age-of-1'
p1234
I1234
sS'with-use-on'
p1235
I1235
sS'as-majority-of'
p1236
I1236
sS'of-course-with-1'
p1237
I1237
sS'about-case-of'
p1238
I203
sS'of-course-with'
p1239
I1239
sS'of-time-with'
p1240
I1240
sS'about-value-of'
p1241
I1241
sS'of-age-within-1'
p1242
I1242
sS'have'
p1243
I1243
sS'need'
p1244
I1244
sS'in-amount-of'
p1245
I1409
sS'as-development-in-1'
p1246
I1246
sS'at-part-of'
p1247
I1247
sS'astride'
p1248
I1248
sS'than-form-of-1'
p1249
I1249
sS'around-world-with-1'
p1250
I1250
sS'of-role-as'
p1251
I1251
sS'on-sort-of-1'
p1252
I278
sS'unless'
p1253
I1253
sS'of-group-for-1'
p1254
I1254
sS'in-importance-of-1'
p1255
I1255
sS'believe-1'
p1256
I1256
sS'on-role-of'
p1257
I1257
sS'upon-end-of'
p1258
I1258
sS'with-use-at'
p1259
I339
sS'in-case-about'
p1260
I1260
sS'of-cost-plus-1'
p1261
I1261
sS'along-part-of-1'
p1262
I1262
sS'although-majority-of'
p1263
I1263
sS'with-amount-of'
p1264
I1264
sS'bring'
p1265
I1265
sS'from-group-of'
p1266
I1266
sS'of-time-per'
p1267
I1267
sS'around-top-of'
p1268
I1268
sS'of-1'
p1269
I1269
sS'magnitude-1'
p1270
I1270
sS'as-presence-of-1'
p1271
I1271
sS'about-nature-of-1'
p1272
I1272
sS'between-end-of'
p1273
I1273
sS'in-house-with'
p1274
I1274
sS'from-group-in-1'
p1275
I447
sS'in-role-as-1'
p1276
I1276
sS'into-group-of-1'
p1277
I486
sS'on-series-of'
p1278
I1278
sS'at-beginning-of-1'
p1279
I1279
sS'by-importance-of'
p1280
I1280
sS'over-time-with'
p1281
I1281
sS'near-back-of-1'
p1282
I1282
sS'intensity'
p1283
I1283
sS'for-time-from'
p1284
I1284
sS'on-work-with'
p1285
I1285
sS'for-majority-in'
p1286
I1286
sS'from-amount-of'
p1287
I216
sS'during-rest-of-1'
p1288
I1416
sS'state'
p1289
I1289
sS'with-idea-for-1'
p1290
I1290
sS'for-bit-of-1'
p1291
I1291
sS'on-effect-on'
p1292
I1292
sS'of-form-of'
p1293
I1293
sS'on-series-for'
p1294
I1294
sS'of-use-per'
p1295
I1295
sS'on-effect-of'
p1296
I1296
sS'before-end-of'
p1297
I1297
sS'on-top-of-1'
p1298
I1298
sS'of-level-for-1'
p1299
I1299
sS'for-use-at-1'
p1300
I1300
sS'as_adj_as'
p1301
I1301
sS'from-course-in-1'
p1302
I218
sS'from-middle-of'
p1303
I1303
sS'in-time-for'
p1304
I1304
sS'near-top-of-1'
p1305
I1305
sS'of-development-of-1'
p1306
I1306
sS'on-sort-of'
p1307
I1307
sS'out-1'
p1308
I1308
sS'at-back-of'
p1309
I1309
sS'for-use-by-1'
p1310
I1310
sS'turn-1'
p1311
I403
sS'as-part-of'
p1312
I1311
sS'of-couple-inside'
p1313
I1312
sS'age-1'
p1314
I677
sS'at-majority-of'
p1315
I1314
sS'area-1'
p1316
I1315
sS'of-presence-of-1'
p1317
I1316
sS'over-couple-of-1'
p1318
I1317
sS'against-form-of-1'
p1319
I1318
sS'into-1'
p1320
I1319
sS'for-time-with'
p1321
I1092
sS'unlike'
p1322
I1321
sS'for-majority-of'
p1323
I1322
sS'as-member-of'
p1324
I1323
sS'as-member-of-1'
p1325
I1324
sS'on-need-of-1'
p1326
I1325
sS'in-group-as'
p1327
I1326
sS'en-1'
p1328
I1327
sS'on-level-with'
p1329
I692
sS'of-time-than'
p1330
I1329
sS'surface'
p1331
I1330
sS'on-basis-with'
p1332
I1331
sS'with-lot-with'
p1333
I1332
sS'of-couple-of'
p1334
I1333
sS'with-number-for'
p1335
I818
sS'from-member-of'
p1336
I695
sS'of-idea-of'
p1337
I1336
sS'with-possibility-of'
p1338
I1337
sS'of-result-in'
p1339
I1338
sS'upon'
p1340
I1339
sS'effect'
p1341
I1340
sS'v.'
p1342
I1341
sS'as-back-of-1'
p1343
I1342
sS'in-part-of-1'
p1344
I697
sS'across-range-of'
p1345
I1344
sS'before-end-of-1'
p1346
I1345
sS'off'
p1347
I1346
sS'center'
p1348
I884
sS'among-group-of'
p1349
I1348
sS'so-kind-of-1'
p1350
I1349
sS'than-form-of'
p1351
I1350
sS'until-end-of-1'
p1352
I1351
sS'after-1'
p1353
I1352
sS'with-end-of-1'
p1354
I1353
sS'add'
p1355
I1354
sS'on-matter-for-1'
p1356
I229
sS'with-bit-for'
p1357
I1356
sS'from-work-in-1'
p1358
I1357
sS'know'
p1359
I1358
sS'by-number-of'
p1360
I1360
sS'look-1'
p1361
I1361
sS'for-development-in'
p1362
I1362
sS'like'
p1363
I1363
sS'into-variety-of'
p1364
I1364
sS'set-1'
p1365
I1365
sS'over-age-of'
p1366
I1030
sS'alongside-1'
p1367
I1035
sS'on-back-of'
p1368
I1368
sS'because'
p1369
I1369
sS'as-middle-of-1'
p1370
I1370
sS'as-basis-for'
p1371
I1371
sS'of-series-of'
p1372
I1372
sS'for-work-as-1'
p1373
I1430
sS'of-range-with'
p1374
I1374
sS'throughout'
p1375
I1375
sS'for-use-of-1'
p1376
I1376
sS'lead'
p1377
I1377
sS'into-development-of-1'
p1378
I1378
sS'up-time-from-1'
p1379
I1379
sS'amid-1'
p1380
I1380
sS'at-level-below-1'
p1381
I1381
sS'of-course-of'
p1382
I1382
sS'below-level-of-1'
p1383
I1383
sS'although'
p1384
I1384
sS'during-time-as'
p1385
I1385
sS'between-time-of-1'
p1386
I1386
sS'vs.'
p1387
I1387
sS'about'
p1388
I1388
sS'for-couple-of-1'
p1389
I1389
sS'in-role-of'
p1390
I1390
sS'via-1'
p1391
I1391
sS'of-course-from'
p1392
I1392
sS'of-age-like'
p1393
I1393
sS'in-variety-of'
p1394
I1394
sS'intensity-1'
p1395
I1395
sS'for-series-between'
p1396
I1396
sS'in-rest-of-1'
p1397
I1397
sS'near-1'
p1398
I1398
sS'wheresoever'
p1399
I1399
sS'with-need-from'
p1400
I1400
sS'of-age-for-1'
p1401
I1401
sS'over-course-of'
p1402
I1402
sS'with-result-in-1'
p1403
I1433
sS'with-member-in'
p1404
I1404
sS'see-1'
p1405
I1220
sS'in-course-for'
p1406
I1406
sS'about-sort-of'
p1407
I1407
sS'opposite-1'
p1408
I1408
sS'through-1'
p1409
I1245
sS'about-variety-of'
p1410
I1410
sS'on-cost-of-1'
p1411
I1411
sS'whether'
p1412
I1412
sS'is-1'
p1413
I1413
sS'over-time-with-1'
p1414
I1414
sS'as-result-of-1'
p1415
I1415
sS'below'
p1416
I1288
sS'in-number-of'
p1417
I1417
sS'move-1'
p1418
I1418
sS'of-use-during-1'
p1419
I1419
sS'off-time-of'
p1420
I1420
sS'for-use-of'
p1421
I1259
sS'after-kind-of-1'
p1422
I1421
sS'of-idea-from-1'
p1423
I1422
sS'as-presence-of'
p1424
I1423
sS'with-cost-of'
p1425
I1424
sS'into-group-for-1'
p1426
I1437
sS'with-number-on'
p1427
I859
sS'with-number-of'
p1428
I1427
sS'onto-1'
p1429
I1428
sS'with-kind-of-1'
p1430
I1429
sS'with-need-than-1'
p1431
I1373
sS'between-1'
p1432
I268
sS'of-nature-of'
p1433
I1432
sS'about-need-for'
p1434
I1403
sS'on-basis-for-1'
p1435
I1434
sS'behind-1'
p1436
I1435
sS'of-role-as-1'
p1437
I1436
sS'though-form-of-1'
p1438
I1425
sS'portion'
p1439
I1438
sS'with-use-at-1'
p1440
I1439
s.