(dp0
S'of-work-per'
p1
I0
sS'of-part-of-1'
p2
I1
sS'in-range-of'
p3
I2
sS'for-time-on'
p4
I712
sS'for-sort-of-1'
p5
I58
sS'go'
p6
I5
sS'amongst-1'
p7
I6
sS'because-1'
p8
I7
sS'with-kind-of'
p9
I836
sS'use-1'
p10
I8
sS'after-kind-of'
p11
I9
sS'below-1'
p12
I11
sS'on-variety-of'
p13
I12
sS'for-series-of'
p14
I13
sS'by-case-per-1'
p15
I14
sS'keep-1'
p16
I15
sS'unto-1'
p17
I16
sS'form-1'
p18
I17
sS'under'
p19
I18
sS'as-result-of'
p20
I19
sS'during-rest-of'
p21
I20
sS'for-course-by-1'
p22
I22
sS'worth'
p23
I23
sS'with-level-of'
p24
I24
sS'whilst-1'
p25
I25
sS'inside-1'
p26
I26
sS'sbj_tr-1'
p27
I27
sS'under-1'
p28
I28
sS'of-time-of'
p29
I29
sS'in-group-in'
p30
I30
sS'for-couple-of-1'
p31
I740
sS'nmod-1'
p32
I31
sS'for-amount-of-1'
p33
I32
sS'verb'
p34
I33
sS'up-1'
p35
I34
sS'for-use-with'
p36
I35
sS'surface-1'
p37
I36
sS'at-level-with-1'
p38
I37
sS'look'
p39
I572
sS'of-idea-as-1'
p40
I38
sS'over-1'
p41
I257
sS'along-1'
p42
I573
sS'in-need-of'
p43
I268
sS'on-basis-with-1'
p44
I607
sS'of-middle-of'
p45
I42
sS'feel-1'
p46
I43
sS'sbj_tr'
p47
I44
sS'for-cost-per-1'
p48
I157
sS'try'
p49
I46
sS'from-series-of-1'
p50
I47
sS'towards-end-of-1'
p51
I48
sS'from-top-of'
p52
I49
sS'above-level-with'
p53
I317
sS'in-beginning-of'
p54
I719
sS'with-need-in'
p55
I54
sS'with-variety-of'
p56
I55
sS'outside-development-in-1'
p57
I56
sS'play-1'
p58
I57
sS'with-range-of'
p59
I4
sS'pay-1'
p60
I59
sS'verb-1'
p61
I60
sS'past'
p62
I61
sS'in-presence-of-1'
p63
I791
sS'of-bit-of-1'
p64
I62
sS'quality-1'
p65
I540
sS'with-level-of-1'
p66
I65
sS'appear'
p67
I67
sS'on-use-as'
p68
I69
sS'as-form-of-1'
p69
I71
sS'with-matter-of-1'
p70
I72
sS'on-back-of-1'
p71
I73
sS'toward-end-of'
p72
I74
sS'for-part-of-1'
p73
I75
sS'though-1'
p74
I76
sS'in-form-of'
p75
I77
sS'above'
p76
I78
sS'unless-1'
p77
I79
sS'of-form-of-1'
p78
I80
sS'of-series-of-1'
p79
I81
sS'of-role-in-1'
p80
I82
sS'about-world-of'
p81
I84
sS'for-end-of-1'
p82
I85
sS'in-back-of-1'
p83
I86
sS'on-time-per'
p84
I87
sS'on-course-of'
p85
I88
sS'through-time-of'
p86
I267
sS'along'
p87
I90
sS'from-age-of-1'
p88
I307
sS'upon-end-of-1'
p89
I92
sS'along-part-of'
p90
I93
sS'side-1'
p91
I457
sS'in-kind-of-1'
p92
I94
sS'around-group-of'
p93
I95
sS'for-range-of'
p94
I96
sS'at-top-of-1'
p95
I97
sS'outside-1'
p96
I98
sS'in-case-of'
p97
I99
sS'in-case-between-1'
p98
I778
sS'about-sort-of-1'
p99
I745
sS'of-role-of-1'
p100
I103
sS'help-1'
p101
I104
sS'as-number-of'
p102
I588
sS'via'
p103
I106
sS'for-number-of'
p104
I107
sS'besides'
p105
I312
sS'nearest'
p106
I109
sS'with-result-in'
p107
I110
sS'as_adj_as-1'
p108
I111
sS'while'
p109
I579
sS'of-bit-of'
p110
I112
sS'by-end-of-1'
p111
I697
sS'come-1'
p112
I114
sS'if-1'
p113
I115
sS'turn-1'
p114
I116
sS'use'
p115
I117
sS'between-nature-of'
p116
I217
sS'from'
p117
I119
sS'in-centre-of'
p118
I120
sS'of-idea-as'
p119
I121
sS'in-number-of-1'
p120
I122
sS'v.-1'
p121
I123
sS'of-number-of'
p122
I124
sS'at-top-of'
p123
I125
sS'by-use-of-1'
p124
I592
sS'of-couple-of-1'
p125
I127
sS'for-time-from-1'
p126
I128
sS'call'
p127
I129
sS'vs.'
p128
I734
sS'in-group-in-1'
p129
I131
sS'of-use-of'
p130
I466
sS'thru'
p131
I133
sS'with-time-of-1'
p132
I134
sS'tell'
p133
I135
sS'for-rest-of'
p134
I136
sS'with-back-of-1'
p135
I137
sS'bring-1'
p136
I139
sS'in-need-of-1'
p137
I140
sS'from-role-in-1'
p138
I141
sS'in-back-of'
p139
I142
sS'before-1'
p140
I143
sS'about'
p141
I737
sS'on-cost-of'
p142
I594
sS'at-time-with'
p143
I467
sS'as-variety-of-1'
p144
I147
sS'of-group-with'
p145
I148
sS'beside-1'
p146
I149
sS'with-development-of-1'
p147
I45
sS'level-1'
p148
I151
sS'with-sort-of-1'
p149
I152
sS'as-work-of-1'
p150
I153
sS'hold'
p151
I154
sS'for-series-of-1'
p152
I155
sS'during-development-of-1'
p153
I156
sS'with-age-of'
p154
I158
sS'as-work-of'
p155
I159
sS'work'
p156
I160
sS'at-level-of-1'
p157
I161
sS'throughout-course-of-1'
p158
I162
sS'unlike-1'
p159
I568
sS'from-top-of-1'
p160
I83
sS'meet'
p161
I166
sS'for-majority-of-1'
p162
I167
sS'in-series-of'
p163
I168
sS'make-1'
p164
I169
sS'lead-1'
p165
I170
sS'give'
p166
I171
sS'for-form-of-1'
p167
I172
sS'of-use-in'
p168
I173
sS'half-1'
p169
I138
sS'on-use-of-1'
p170
I175
sS'of-level-of-1'
p171
I177
sS'after-couple-of'
p172
I178
sS'in-level-of-1'
p173
I179
sS'want'
p174
I180
sS'in-possibility-of-1'
p175
I181
sS'near-end-of'
p176
I182
sS'with-question-with-1'
p177
I183
sS'from-age-of'
p178
I184
sS'with-number-of-1'
p179
I185
sS'show-1'
p180
I186
sS'of-member-of-1'
p181
I187
sS'of-variety-of-1'
p182
I188
sS'try-1'
p183
I189
sS'with-house-with-1'
p184
I231
sS'till'
p185
I193
sS'for-1'
p186
I194
sS'of-idea-of-1'
p187
I195
sS'of-importance-of-1'
p188
I249
sS'with-need-in-1'
p189
I197
sS'as-development-in'
p190
I198
sS'with-role-in-1'
p191
I199
sS'at-end-of-1'
p192
I200
sS'with-group-of'
p193
I201
sS'of-amount-of-1'
p194
I202
sS'past-1'
p195
I288
sS'up-series-of'
p196
I205
sS'after'
p197
I206
sS'at-1'
p198
I207
sS'between-range-of'
p199
I208
sS'produce'
p200
I209
sS'without-use-of-1'
p201
I210
sS'end'
p202
I211
sS'of-development-of'
p203
I212
sS'among-group-of-1'
p204
I215
sS'by-use-of'
p205
I477
sS'of-case-in-1'
p206
I304
sS'hold-1'
p207
I218
sS'amid'
p208
I220
sS'sit'
p209
I221
sS'on-part-of-1'
p210
I222
sS'for-effect-in-1'
p211
I223
sS'in-middle-of-1'
p212
I748
sS'provide'
p213
I225
sS'so'
p214
I226
sS'for-use-on'
p215
I227
sS'through-1'
p216
I777
sS'near-back-of'
p217
I480
sS'for-use-of'
p218
I229
sS'towards-end-of'
p219
I230
sS'help'
p220
I233
sS'than-kind-of'
p221
I53
sS'is'
p222
I593
sS'over'
p223
I235
sS'move'
p224
I236
sS'whilst'
p225
I237
sS'through'
p226
I238
sS'of-effect-of'
p227
I239
sS'before'
p228
I240
sS'on-basis-of-1'
p229
I241
sS'vis-a-vis-1'
p230
I242
sS'for-rest-of-1'
p231
I243
sS'from-level-of-1'
p232
I244
sS'in-course-of'
p233
I68
sS'in-work-with-1'
p234
I851
sS'by-group-of'
p235
I246
sS'nature-1'
p236
I247
sS'of-majority-of-1'
p237
I248
sS'since-role-in-1'
p238
I196
sS'against-1'
p239
I250
sS'off-1'
p240
I251
sS'into'
p241
I752
sS'at-level-of'
p242
I253
sS'versus'
p243
I254
sS'from-back-of'
p244
I255
sS'on-basis-of'
p245
I256
sS'at-end-of'
p246
I39
sS'underneath'
p247
I258
sS'of-house-around'
p248
I259
sS'for-group-of'
p249
I260
sS'from-beginning-of'
p250
I261
sS'work-1'
p251
I262
sS'be-1'
p252
I263
sS'without-need-for-1'
p253
I264
sS'such_as'
p254
I265
sS'down'
p255
I756
sS'of-kind-of-1'
p256
I41
sS'as-work-with'
p257
I270
sS'near-centre-of'
p258
I271
sS'for-need-in'
p259
I272
sS'at-beginning-of'
p260
I638
sS'in-end-of-1'
p261
I274
sS'beneath'
p262
I275
sS'side'
p263
I276
sS'mean'
p264
I277
sS'down-centre-of'
p265
I278
sS'en'
p266
I279
sS'with-cost-of-1'
p267
I280
sS'between-time-for'
p268
I281
sS'per-1'
p269
I282
sS'for-work-on-1'
p270
I283
sS'with-use-on-1'
p271
I284
sS'of-range-of'
p272
I285
sS'among-1'
p273
I286
sS'such_as-1'
p274
I287
sS'with-variety-of-1'
p275
I204
sS'with-number-on-1'
p276
I289
sS'beyond'
p277
I290
sS'run-1'
p278
I291
sS'with-series-of-1'
p279
I759
sS'out'
p280
I293
sS'of-variety-as-1'
p281
I294
sS'out-variety-of'
p282
I295
sS'from-role-in'
p283
I344
sS'corner-1'
p284
I297
sS'since'
p285
I298
sS'edge-1'
p286
I299
sS'in-work-as'
p287
I300
sS'appear-1'
p288
I301
sS'get'
p289
I473
sS'sbj_intr-1'
p290
I303
sS'in-case-between'
p291
I305
sS'in-form-from-1'
p292
I306
sS'near-beginning-of'
p293
I91
sS'of-back-of-1'
p294
I309
sS'whereupon'
p295
I310
sS'by-presence-of-1'
p296
I311
sS'as-centre-of-1'
p297
I108
sS'put'
p298
I313
sS'that-1'
p299
I314
sS'if-idea-of-1'
p300
I315
sS'since-number-of-1'
p301
I349
sS'of-sort-of'
p302
I488
sS'in-centre-of-1'
p303
I50
sS'with-amount-of-1'
p304
I319
sS'for-group-of-1'
p305
I320
sS'from-time-of'
p306
I321
sS'turn'
p307
I322
sS'of-time-in'
p308
I323
sS'on-1'
p309
I325
sS'view'
p310
I497
sS'onto'
p311
I327
sS'think'
p312
I328
sS'on-end-of'
p313
I329
sS'around-1'
p314
I622
sS'during-development-of'
p315
I331
sS'with-lot-of-1'
p316
I353
sS'versus-1'
p317
I333
sS'of-kind-of'
p318
I334
sS'about-importance-of'
p319
I335
sS'feel'
p320
I336
sS'temperature-1'
p321
I337
sS'for-work-with'
p322
I623
sS'of-work-with-1'
p323
I338
sS'like-part-of'
p324
I339
sS'set'
p325
I498
sS'since-age-of-1'
p326
I602
sS'of-use-in-1'
p327
I343
sS'give-1'
p328
I296
sS'quality'
p329
I345
sS'than-1'
p330
I499
sS'in-end-of'
p331
I347
sS'from-rest-of'
p332
I348
sS'about-amount-of'
p333
I316
sS'for-level-of'
p334
I350
sS'of-house-in'
p335
I351
sS'of-idea-about-1'
p336
I352
sS'without-1'
p337
I332
sS'with-role-of'
p338
I354
sS'with-idea-for'
p339
I355
sS'circa-1'
p340
I356
sS'on-case-from'
p341
I357
sS'with-variety-in'
p342
I358
sS'obj-1'
p343
I359
sS'in-importance-of'
p344
I163
sS'about-1'
p345
I361
sS'in-result-of'
p346
I362
sS'in-time-for-1'
p347
I367
sS'find-1'
p348
I364
sS'that'
p349
I365
sS'call-1'
p350
I366
sS'in-majority-of'
p351
I340
sS'in-top-of-1'
p352
I369
sS'part'
p353
I370
sS'on-top-of'
p354
I371
sS'with-use-of'
p355
I372
sS'of-time-with-1'
p356
I373
sS'off'
p357
I627
sS'believe'
p358
I374
sS'around-world-with'
p359
I219
sS'than'
p360
I376
sS'proportion-1'
p361
I377
sS'albeit'
p362
I378
sS'mean-1'
p363
I379
sS'by-1'
p364
I380
sS'for-development-of-1'
p365
I381
sS"o'er"
p366
I382
sS'color-1'
p367
I383
sS'of-case-of'
p368
I384
sS'of-course-with'
p369
I385
sS'in-house-of'
p370
I386
sS'at-time-with-1'
p371
I387
sS'is-1'
p372
I794
sS'about-nature-of'
p373
I388
sS'as-use-of'
p374
I360
sS'of-house-of-1'
p375
I390
sS'for-part-of'
p376
I391
sS're-1'
p377
I629
sS'in-couple-of-1'
p378
I392
sS'meet-1'
p379
I393
sS'toward'
p380
I395
sS'minus'
p381
I396
sS'for-use-at'
p382
I52
sS'for-use-as'
p383
I113
sS'of-presence-of'
p384
I399
sS'alongside'
p385
I400
sS'above-majority-of'
p386
I401
sS'part-1'
p387
I402
sS'say'
p388
I403
sS'underneath-1'
p389
I404
sS'have'
p390
I405
sS'need'
p391
I406
sS'with-end-of'
p392
I407
sS'seem'
p393
I408
sS'at-beginning-of-1'
p394
I500
sS'for-need-in-1'
p395
I409
sS'of-age-like-1'
p396
I410
sS'in-middle-of'
p397
I411
sS'throughout-1'
p398
I412
sS'near-end-of-1'
p399
I413
sS'in-part-of'
p400
I779
sS'aspect-1'
p401
I414
sS'for'
p402
I709
sS'against-back-of'
p403
I415
sS'take'
p404
I417
sS'sit-1'
p405
I418
sS'about-case-of-1'
p406
I419
sS'of-top-of'
p407
I10
sS'from-world-of'
p408
I421
sS'because-number-of-1'
p409
I422
sS'from-part-of-1'
p410
I423
sS'begin'
p411
I424
sS'towards'
p412
I425
sS'in-group-of'
p413
I426
sS'though'
p414
I428
sS'Next-1'
p415
I429
sS'for-couple-with-1'
p416
I430
sS'amongst'
p417
I781
sS'with-use-of-1'
p418
I432
sS'whether-1'
p419
I433
sS'of-rest-of'
p420
I434
sS'of-part-of'
p421
I435
sS'on-role-of'
p422
I436
sS'in-matter-of-1'
p423
I203
sS'above-1'
p424
I438
sS'version-1'
p425
I439
sS'at-level-for-1'
p426
I440
sS'despite-1'
p427
I441
sS'as-part-of-1'
p428
I442
sS'of-couple-with'
p429
I443
sS'point-1'
p430
I444
sS'from-level-of'
p431
I445
sS'with-lot-of'
p432
I446
sS'plus-1'
p433
I447
sS'from-end-of-1'
p434
I448
sS'show'
p435
I449
sS'go-1'
p436
I786
sS'for-use-in-1'
p437
I450
sS'between-age-of'
p438
I451
sS'with-amount-of'
p439
I452
sS'bring'
p440
I453
sS'find'
p441
I455
sS'of-centre-with'
p442
I456
sS'towards-1'
p443
I785
sS'for-level-of-1'
p444
I234
sS'want-1'
p445
I458
sS'from-group-of'
p446
I100
sS'within-time-of'
p447
I460
sS'outside'
p448
I510
sS'of-time-per'
p449
I462
sS'in-matter-of'
p450
I463
sS'of-1'
p451
I464
sS'version'
p452
I465
sS'of-use-of-1'
p453
I132
sS'for-time-in'
p454
I146
sS'on-level-with-1'
p455
I468
sS'amongst-group-of-1'
p456
I469
sS'for-time-in-1'
p457
I470
sS'down-1'
p458
I471
sS'nearest-1'
p459
I472
sS'on-matter-of-1'
p460
I190
sS'into-group-for'
p461
I474
sS'between'
p462
I514
sS'unlike-majority-of'
p463
I476
sS'for-house-of'
p464
I216
sS'in-form-of-1'
p465
I515
sS'of-age-in'
p466
I479
sS'between-end-of'
p467
I228
sS'against-couple-of'
p468
I481
sS'despite'
p469
I482
sS'during'
p470
I483
sS'vs.-1'
p471
I484
sS'if-part-of-1'
p472
I485
sS'although-1'
p473
I486
sS'of-development-in'
p474
I427
sS'with-value-in-1'
p475
I489
sS'in-use-of-1'
p476
I639
sS'coord'
p477
I491
sS'beneath-1'
p478
I492
sS'from-kind-of'
p479
I493
sS'of-centre-of'
p480
I494
sS'with-group-in'
p481
I495
sS'inside'
p482
I496
sS'into-group-of-1'
p483
I326
sS'of-rest-for'
p484
I341
sS'at-centre-of-1'
p485
I346
sS'section-1'
p486
I420
sS'of-time-with'
p487
I501
sS'in-development-of-1'
p488
I502
sS'in-case-of-1'
p489
I609
sS'see'
p490
I503
sS'state-1'
p491
I798
sS'provide-1'
p492
I505
sS'in-1'
p493
I837
sS'at-level-in'
p494
I506
sS'in-role-as'
p495
I507
sS'of-age-of-1'
p496
I375
sS'on-effect-on'
p497
I508
sS'of-value-of-1'
p498
I509
sS'behind'
p499
I461
sS'with-development-in'
p500
I511
sS'with-member-of'
p501
I512
sS'in-lot-of-1'
p502
I513
sS'in-time-of'
p503
I475
sS'on-value-of'
p504
I478
sS'in-use-for-1'
p505
I516
sS'across'
p506
I517
sS'on-top-of-1'
p507
I525
sS'from-amount-of'
p508
I51
sS'with-sort-of'
p509
I519
sS'of-form-of'
p510
I520
sS'on-series-for'
p511
I521
sS'of-use-per'
p512
I522
sS'on-effect-of'
p513
I523
sS'before-end-of'
p514
I524
sS'for-work-in'
p515
I232
sS'of-effect-for'
p516
I526
sS'for-use-at-1'
p517
I527
sS'as_adj_as'
p518
I416
sS'at-time-of'
p519
I529
sS'along-top-of-1'
p520
I531
sS'once-1'
p521
I532
sS'have-1'
p522
I650
sS'from-middle-of'
p523
I191
sS'during-1'
p524
I534
sS'against'
p525
I535
sS'during-time-in'
p526
I536
sS'of-basis-for-1'
p527
I537
sS'in-time-for'
p528
I538
sS'let'
p529
I89
sS'of-member-in'
p530
I101
sS'in-course-for-1'
p531
I651
sS'of-rest-per'
p532
I542
sS'among'
p533
I543
sS'in-level-of'
p534
I544
sS'prd'
p535
I397
sS'within'
p536
I753
sS'produce-1'
p537
I546
sS'let-1'
p538
I547
sS'except'
p539
I653
sS'happen-1'
p540
I549
sS'say-1'
p541
I550
sS'throughout'
p542
I551
sS'out-1'
p543
I552
sS'from-end-of'
p544
I553
sS'at-back-of'
p545
I554
sS'whereas-1'
p546
I398
sS'come'
p547
I528
sS'of-range-of-1'
p548
I557
sS'as-part-of'
p549
I558
sS'of-couple-inside'
p550
I559
sS'out-variety-of-1'
p551
I589
sS'area-1'
p552
I560
sS'wheresoever-1'
p553
I561
sS'of-presence-of-1'
p554
I562
sS'with-use-at-1'
p555
I863
sS'history-1'
p556
I563
sS'for-amount-than'
p557
I564
sS'as-majority-of-1'
p558
I565
sS'over-couple-of-1'
p559
I566
sS'though-form-of'
p560
I567
sS'as-beginning-with'
p561
I318
sS'against-group-of-1'
p562
I21
sS'play'
p563
I699
sS'into-1'
p564
I570
sS'view-1'
p565
I571
sS'for-use-as-1'
p566
I533
sS'unlike'
p567
I40
sS'within-1'
p568
I574
sS'for-majority-of'
p569
I575
sS'as'
p570
I815
sS'of-group-of'
p571
I577
sS'as-member-of'
p572
I578
sS'near'
p573
I176
sS'as-member-of-1'
p574
I580
sS'iobj'
p575
I581
sS'toward-1'
p576
I582
sS'against-series-of-1'
p577
I583
sS'at-level-below'
p578
I584
sS'in-group-as'
p579
I585
sS'except-1'
p580
I586
sS'en-1'
p581
I102
sS'athwart-1'
p582
I105
sS'of-member-of'
p583
I302
sS'for-lot-of'
p584
I590
sS'by-nature-of-1'
p585
I591
sS'between-end-of-1'
p586
I126
sS'from-number-of-1'
p587
I273
sS'of-time-than'
p588
I145
sS'with-part-in-1'
p589
I595
sS'as-group-of-1'
p590
I596
sS'so-1'
p591
I818
sS'per-level-with-1'
p592
I598
sS'for-sort-of'
p593
I174
sS'if'
p594
I600
sS'as-house-of-1'
p595
I601
sS'with-possibility-of-1'
p596
I820
sS'because'
p597
I758
sS'for-form-of'
p598
I603
sS'pay'
p599
I604
sS'make'
p600
I605
sS'in-kind-of'
p601
I606
sS'amount'
p602
I394
sS'beside'
p603
I608
sS'coord-1'
p604
I245
sS'of-kind-from-1'
p605
I610
sS'out-number-of'
p606
I611
sS'of-idea-of'
p607
I612
sS'of-role-in'
p608
I613
sS'composition'
p609
I614
sS'from-range-of'
p610
I615
sS'unlike-majority-of-1'
p611
I616
sS'for-value-of'
p612
I617
sS'upon'
p613
I618
sS'on-end-of-1'
p614
I825
sS'in-beginning-with'
p615
I620
sS'at-level-except-1'
p616
I826
sS'with-value-in'
p617
I330
sS'over-range-of-1'
p618
I539
sS'of-house-of'
p619
I624
sS'keep'
p620
I625
sS'till-1'
p621
I626
sS'in'
p622
I599
sS'if-idea-of'
p623
I628
sS'on-bit-of-1'
p624
I454
sS'in-use-as-1'
p625
I631
sS'without'
p626
I632
sS'than-form-of'
p627
I633
sS'with-idea-for-1'
p628
I634
sS'with-number-of'
p629
I829
sS'on-series-of-1'
p630
I636
sS'about-value-of'
p631
I545
sS'at-time-in-1'
p632
I637
sS'life-1'
p633
I487
sS'across-1'
p634
I830
sS'on-development-of'
p635
I490
sS'in-world-of'
p636
I640
sS'with-couple-of-1'
p637
I641
sS'aspect'
p638
I642
sS'beyond-1'
p639
I643
sS'while-1'
p640
I654
sS'need-1'
p641
I644
sS'unto'
p642
I645
sS'at-time-of-1'
p643
I646
sS'near-top-of'
p644
I647
sS'after-1'
p645
I648
sS'amidst-1'
p646
I649
sS'of-time-on'
p647
I363
sS'amount-1'
p648
I541
sS'point'
p649
I652
sS'with-end-of-1'
p650
I548
sS'portion-1'
p651
I63
sS'look-1'
p652
I675
sS'for-use-by'
p653
I655
sS'add'
p654
I656
sS'of-basis-for'
p655
I658
sS'from-house-of'
p656
I659
sS'for-range-of-1'
p657
I214
sS'from-work-in'
p658
I661
sS'with-member-of-1'
p659
I833
sS'from-work-in-1'
p660
I663
sS'around'
p661
I664
sS'between-1'
p662
I841
sS'of-sort-of-1'
p663
I665
sS'in-development-of'
p664
I666
sS'with-bit-for'
p665
I667
sS'add-1'
p666
I213
sS'for-role-of-1'
p667
I669
sS'onto-1'
p668
I834
sS'as-middle-of'
p669
I671
sS'know'
p670
I672
sS'on-sort-of'
p671
I673
sS'by-number-of'
p672
I674
sS'with-time-for-1'
p673
I660
sS'on-kind-of-1'
p674
I676
sS'start-1'
p675
I680
sS'cause-1'
p676
I679
sS'like'
p677
I677
sS'of-end-of'
p678
I681
sS'with-work-on'
p679
I682
sS'on-course-per'
p680
I683
sS'with-rest-of-1'
p681
I684
sS'sound-1'
p682
I685
sS'of-use-during'
p683
I686
sS'set-1'
p684
I687
sS'in-work-as-1'
p685
I688
sS'prd-1'
p686
I689
sS'become'
p687
I691
sS'of-group-of-1'
p688
I692
sS'for-member-of-1'
p689
I66
sS'of-variety-of'
p690
I518
sS'on-back-of'
p691
I694
sS'iobj-1'
p692
I695
sS'upon-1'
p693
I690
sS'with-back-of'
p694
I698
sS'of-work-of-1'
p695
I657
sS'development-1'
p696
I700
sS'at-number-of'
p697
I701
sS'unless'
p698
I702
sS'of-series-of'
p699
I703
sS'in-presence-of'
p700
I704
sS'with-presence-of-1'
p701
I705
sS'on-use-in'
p702
I706
sS'with-role-in'
p703
I707
sS'for-use-of-1'
p704
I708
sS'for-time-of'
p705
I192
sS'within-course-of'
p706
I710
sS'opposite'
p707
I711
sS'per'
p708
I3
sS'at-range-of'
p709
I713
sS'for-use-in'
p710
I714
sS'up-time-from-1'
p711
I715
sS'at-range-on'
p712
I716
sS'sbj_intr'
p713
I717
sS'for-use-by-1'
p714
I718
sS'tell-1'
p715
I569
sS'be'
p716
I720
sS'run'
p717
I721
sS'of-case-against'
p718
I722
sS'of-course-of'
p719
I723
sS'of-age-of'
p720
I724
sS'as-1'
p721
I725
sS'below-level-of-1'
p722
I726
sS'from-group-in'
p723
I727
sS'although'
p724
I728
sS'over-age-of'
p725
I729
sS'for-role-as-1'
p726
I730
sS'during-time-as'
p727
I731
sS'between-time-of-1'
p728
I118
sS'by'
p729
I733
sS'around-group-of-1'
p730
I130
sS'with-group-of-1'
p731
I555
sS'hear-1'
p732
I735
sS'on'
p733
I736
sS'from-world-of-1'
p734
I144
sS'alongside-1'
p735
I693
sS'obj'
p736
I739
sS'of'
p737
I164
sS'know-1'
p738
I741
sS'in-role-of'
p739
I742
sS'via-1'
p740
I743
sS'plus'
p741
I744
sS'in-use-of'
p742
I668
sS'at-range-from-1'
p743
I556
sS'on-lot-of'
p744
I746
sS'worth-1'
p745
I747
sS'in-variety-of'
p746
I224
sS'at-level-against-1'
p747
I750
sS'become-1'
p748
I751
sS'of-nature-for'
p749
I252
sS'get-1'
p750
I630
sS'over-range-of'
p751
I754
sS'intensity-1'
p752
I755
sS'from-1'
p753
I266
sS'seem-1'
p754
I70
sS'since-1'
p755
I696
sS'near-1'
p756
I292
sS'as-basis-for-1'
p757
I760
sS'for-lot-of-1'
p758
I761
sS'of-age-for-1'
p759
I762
sS'area'
p760
I763
sS'with-member-in'
p761
I764
sS'at-work-with'
p762
I765
sS'amidst'
p763
I342
sS'for-result-in-1'
p764
I767
sS'start'
p765
I768
sS'of-number-of-1'
p766
I769
sS'though-range-of-1'
p767
I770
sS'about-sort-of'
p768
I771
sS'with-question-about'
p769
I772
sS'opposite-1'
p770
I773
sS'in-group-of-1'
p771
I774
sS'put-1'
p772
I775
sS'ago'
p773
I849
sS'in-amount-of'
p774
I324
sS'with-need-of-1'
p775
I389
sS'for-value-of-1'
p776
I749
sS'in-series-of-1'
p777
I437
sS'atop'
p778
I780
sS'in-range-of-1'
p779
I431
sS'for-use-on-1'
p780
I782
sS'hear'
p781
I783
sS'with-range-of-1'
p782
I784
sS'Next'
p783
I64
sS'with'
p784
I459
sS'like-1'
p785
I787
sS'in-house-with-1'
p786
I788
sS'on-nature-of-1'
p787
I789
sS'besides-1'
p788
I790
sS'per-group-of'
p789
I738
sS'at-time-as'
p790
I792
sS'whether'
p791
I793
sS'of-rest-of-1'
p792
I269
sS'over-time-with-1'
p793
I795
sS'as-result-of-1'
p794
I796
sS'up'
p795
I797
sS'nmod'
p796
I504
sS'until'
p797
I799
sS'of-cost-plus'
p798
I853
sS'below'
p799
I801
sS'in-number-of'
p800
I802
sS'move-1'
p801
I803
sS'off-time-of'
p802
I804
sS'on-form-for'
p803
I805
sS'behind-1'
p804
I855
sS'on-work-with-1'
p805
I807
sS'as-series-of'
p806
I808
sS'by-end-of'
p807
I809
sS'of-course-of-1'
p808
I810
sS'for-use-with-1'
p809
I811
sS'with-majority-of'
p810
I812
sS'of-lot-of'
p811
I813
sS'for-kind-of-1'
p812
I814
sS'as-presence-of'
p813
I576
sS'in-form-from'
p814
I587
sS'on-matter-for-1'
p815
I817
sS'with-1'
p816
I597
sS'after-end-of'
p817
I819
sS'in-age-of'
p818
I732
sS'for-course-of'
p819
I821
sS'from-member-of'
p820
I822
sS'begin-1'
p821
I823
sS'for-use-within'
p822
I824
sS'atop-1'
p823
I619
sS'in-part-of-1'
p824
I621
sS'with-course-of'
p825
I827
sS'by-member-of-1'
p826
I828
sS'whereas'
p827
I635
sS'into-variety-of-1'
p828
I165
sS'from-number-of'
p829
I757
sS'for-bit-of'
p830
I831
sS'role'
p831
I832
sS'from-work-with'
p832
I662
sS'with-effect-in-1'
p833
I670
sS'think-1'
p834
I835
sS'with-rest-of'
p835
I678
sS'with-kind-of-1'
p836
I530
sS'as-rest-of-1'
p837
I368
sS'thru-1'
p838
I838
sS'amid-1'
p839
I839
sS'take-1'
p840
I840
sS'see-1'
p841
I766
sS'although-number-of-1'
p842
I842
sS'ago-1'
p843
I843
sS'with-group-for'
p844
I844
sS'of-work-with'
p845
I845
sS'of-nature-of'
p846
I846
sS'around-back-of'
p847
I847
sS'for-number-of-1'
p848
I848
sS'on-value-of-1'
p849
I776
sS'from-part-of'
p850
I850
sS'lead'
p851
I308
sS'composition-1'
p852
I852
sS'on-basis-for-1'
p853
I800
sS'end-1'
p854
I854
sS'age'
p855
I806
sS'of-role-as-1'
p856
I856
sS'than-number-of-1'
p857
I857
sS'of-level-of'
p858
I858
sS'with-number-on'
p859
I859
sS'of-centre-of-1'
p860
I860
sS'at'
p861
I816
sS'until-1'
p862
I861
sS'once'
p863
I862
sS'on-part-of'
p864
I150
s.