(dp0
S'"trip:vacation"'
p1
I0
sS'"dog:treat"'
p2
I1
sS'"paragraph:word"'
p3
I2
sS'"cold:sneeze"'
p4
I3
sS'"dog:pet"'
p5
I4
sS'"brush:paint"'
p6
I5
sS'"sheep:lamb"'
p7
I6
sS'"judge:authority"'
p8
I7
sS'"knife:sword"'
p9
I8
sS'"football:playbook"'
p10
I9
sS'"partner:dancer"'
p11
I10
sS'"eat:food"'
p12
I11
sS'"lion:zoo"'
p13
I12
sS'"drive:arrive"'
p14
I13
sS'"party:cake"'
p15
I14
sS'"citizen:society"'
p16
I15
sS'"heavy:press"'
p17
I16
sS'"curtain:window"'
p18
I17
sS'"love:eternal"'
p19
I18
sS'"food:nourishment"'
p20
I20
sS'"church:hymnal"'
p21
I21
sS'"artwork:replica"'
p22
I22
sS'"stitch:cloth"'
p23
I23
sS'"desire:advertisement"'
p24
I24
sS'"sketch:drawing"'
p25
I25
sS'"crown:royalty"'
p26
I26
sS'"life:biography"'
p27
I27
sS'"despair:joy"'
p28
I28
sS'"door:inside"'
p29
I29
sS'"laughter:joke"'
p30
I319
sS'"pride:lion"'
p31
I31
sS'"abbey:nun"'
p32
I32
sS'"flower:tree"'
p33
I33
sS'"mineral:mica"'
p34
I34
sS'"glass:vase"'
p35
I35
sS'"text:index"'
p36
I36
sS'"step:journey"'
p37
I37
sS'"sweat:run"'
p38
I38
sS'"sell:buyer"'
p39
I39
sS'"cough:illness"'
p40
I40
sS'"gallon:ounce"'
p41
I41
sS'"give:receiver"'
p42
I42
sS'"treatment:patient"'
p43
I43
sS'"crack:break"'
p44
I44
sS'"run:sprint"'
p45
I982
sS'"hilarity:laugh"'
p46
I46
sS'"restaurant:eating"'
p47
I47
sS'"sleep:rest"'
p48
I253
sS'"neck:scarf"'
p49
I49
sS'"house:dwelling"'
p50
I50
sS'"pet:dog"'
p51
I51
sS'"raise:low"'
p52
I52
sS'"squad:platoon"'
p53
I53
sS'"salt:flavor"'
p54
I54
sS'"edge:cliff"'
p55
I55
sS'"woman:penis"'
p56
I56
sS'"compass:direction"'
p57
I57
sS'"building:wall"'
p58
I58
sS'"circus:clown"'
p59
I59
sS'"baby:bald"'
p60
I60
sS'"insured:policy"'
p61
I823
sS'"birthday:present"'
p62
I62
sS'"mattress:bedroom"'
p63
I63
sS'"fish:hair"'
p64
I64
sS'"wood:fireplace"'
p65
I66
sS'"light:dark"'
p66
I67
sS'"coat:warmth"'
p67
I68
sS'"health:disease"'
p68
I69
sS'"program:code"'
p69
I70
sS'"infertility:reproduction"'
p70
I71
sS'"screw:screwdriver"'
p71
I72
sS'"hit:aggressive"'
p72
I73
sS'"pie:crust"'
p73
I74
sS'"child:nanny"'
p74
I75
sS'"adulthood:independence"'
p75
I76
sS'"joy:skip"'
p76
I77
sS'"wall:plaster"'
p77
I78
sS'"activity:boredom"'
p78
I79
sS'"germ:disease"'
p79
I80
sS'"scholar:intelligence"'
p80
I81
sS'"heal:hurt"'
p81
I82
sS'"grief:happiness"'
p82
I431
sS'"employee:job"'
p83
I83
sS'"introduction:speech"'
p84
I84
sS'"art:artist"'
p85
I85
sS'"thaw:frozen"'
p86
I86
sS'"tumor:body"'
p87
I87
sS'"pen:write"'
p88
I88
sS'"idea:invention"'
p89
I509
sS'"chef:spatula"'
p90
I90
sS'"school:student"'
p91
I91
sS'"tail:frog"'
p92
I92
sS'"discard:litter"'
p93
I93
sS'"hive:bee"'
p94
I94
sS'"close:door"'
p95
I1304
sS'"disease:medicine"'
p96
I96
sS'"harvest:crop"'
p97
I97
sS'"broom:sweep"'
p98
I98
sS'"book:chapter"'
p99
I99
sS'"broken:repair"'
p100
I100
sS'"perform:audience"'
p101
I101
sS'"fracture:bone"'
p102
I102
sS'"stink:smell"'
p103
I103
sS'"needle:cloth"'
p104
I104
sS'"duck:goose"'
p105
I105
sS'"letter:word"'
p106
I106
sS'"sick:fever"'
p107
I107
sS'"sad:frown"'
p108
I108
sS'"headache:stress"'
p109
I109
sS'"plan:lesson"'
p110
I110
sS'"sock:foot"'
p111
I111
sS'"fizzy:pop"'
p112
I112
sS'"weaver:cloth"'
p113
I113
sS'"commercial:viewer"'
p114
I114
sS'"fire:hot"'
p115
I115
sS'"help:helpless"'
p116
I116
sS'"kitchen:pot"'
p117
I1645
sS'"birthday:party"'
p118
I118
sS'"inside:outside"'
p119
I119
sS'"picker:apple"'
p120
I120
sS'"dynamite:explode"'
p121
I121
sS'"prom:dress"'
p122
I122
sS'"preview:movie"'
p123
I123
sS'"desert:water"'
p124
I124
sS'"movie:preview"'
p125
I125
sS'"smoke:fire"'
p126
I1646
sS'"educator:teach"'
p127
I127
sS'"go:stop"'
p128
I128
sS'"necklace:neck"'
p129
I129
sS'"computer:laptop"'
p130
I130
sS'"depression:mind"'
p131
I131
sS'"heroin:euphoria"'
p132
I132
sS'"finger:hand"'
p133
I133
sS'"butcher:knife"'
p134
I134
sS'"shriek:panic"'
p135
I135
sS'"shriek:scream"'
p136
I136
sS'"lease:apartment"'
p137
I137
sS'"screenplay:movie"'
p138
I855
sS'"television:remote"'
p139
I139
sS'"saint:holiness"'
p140
I140
sS'"ice:melt"'
p141
I141
sS'"kiss:passionate"'
p142
I142
sS'"blacksmith:iron"'
p143
I143
sS'"soldier:war"'
p144
I144
sS'"overweight:healthy"'
p145
I145
sS'"father:family"'
p146
I147
sS'"water:flow"'
p147
I148
sS'"herd:elephant"'
p148
I149
sS'"restroom:bathroom"'
p149
I150
sS'"forgive:sin"'
p150
I151
sS'"cocktail:alcohol"'
p151
I152
sS'"solid:liquid"'
p152
I153
sS'"fish:swim"'
p153
I154
sS'"buzzer:end"'
p154
I155
sS'"freezing:warm"'
p155
I156
sS'"clothing:thread"'
p156
I157
sS'"adoptee:certificate"'
p157
I158
sS'"father:son"'
p158
I159
sS'"provocative:controversy"'
p159
I160
sS'"pizza:cheesy"'
p160
I161
sS'"fairy:wand"'
p161
I162
sS'"past:future"'
p162
I163
sS'"office:working"'
p163
I164
sS'"salesperson:customer"'
p164
I165
sS'"musician:instrument"'
p165
I166
sS'"architect:building"'
p166
I167
sS'"ignorant:bliss"'
p167
I168
sS'"state:Virginia"'
p168
I169
sS'"champion:trophy"'
p169
I170
sS'"coach:player"'
p170
I171
sS'"rooster:hen"'
p171
I172
sS'"fear:panic"'
p172
I173
sS'"pencil:write"'
p173
I174
sS'"shooting:basketball"'
p174
I175
sS'"day:evening"'
p175
I176
sS'"sight:invisible"'
p176
I177
sS'"therapy:talking"'
p177
I178
sS'"child:mother"'
p178
I179
sS'"alarm:action"'
p179
I180
sS'"medicine:illness"'
p180
I181
sS'"photograph:camera"'
p181
I182
sS'"genealogy:family"'
p182
I183
sS'"hunter:game"'
p183
I184
sS'"wire:metal"'
p184
I185
sS'"mechanic:garage"'
p185
I1125
sS'"hotel:lobby"'
p186
I188
sS'"hot:burn"'
p187
I189
sS'"divorcee:marriage"'
p188
I190
sS'"shorten:distance"'
p189
I191
sS'"image:sketch"'
p190
I1151
sS'"piece:bunch"'
p191
I193
sS'"white:gray"'
p192
I194
sS'"vitamin:deficiency"'
p193
I195
sS'"medicine:recovery"'
p194
I196
sS'"heat:temperature"'
p195
I197
sS'"coward:fear"'
p196
I198
sS'"poverty:riches"'
p197
I199
sS'"insect:ant"'
p198
I1893
sS'"photographer:camera"'
p199
I200
sS'"kind:rude"'
p200
I201
sS'"shout:whisper"'
p201
I202
sS'"obey:protest"'
p202
I203
sS'"farmer:food"'
p203
I204
sS'"repair:break"'
p204
I205
sS'"stab:knife"'
p205
I206
sS'"reader:textbook"'
p206
I207
sS'"selfish:egotism"'
p207
I208
sS'"dairy:milk"'
p208
I209
sS'"vaccine:virus"'
p209
I210
sS'"corpse:life"'
p210
I211
sS'"funeral:corpse"'
p211
I212
sS'"burn:hot"'
p212
I213
sS'"diaper:baby"'
p213
I687
sS'"lower:raise"'
p214
I216
sS'"tree:oak"'
p215
I217
sS'"agenda:meeting"'
p216
I218
sS'"raise:child"'
p217
I219
sS'"church:pew"'
p218
I220
sS'"baker:knead"'
p219
I221
sS'"scar:complexion"'
p220
I1319
sS'"dress:frock"'
p221
I223
sS'"drive:car"'
p222
I224
sS'"sleep:exhaustion"'
p223
I225
sS'"angry:smile"'
p224
I226
sS'"cry:help"'
p225
I227
sS'"thirsty:drink"'
p226
I228
sS'"prayer:reverence"'
p227
I229
sS'"flashlight:bulb"'
p228
I230
sS'"high:low"'
p229
I231
sS'"light:dim"'
p230
I232
sS'"walk:sit"'
p231
I233
sS'"fish:trout"'
p232
I234
sS'"cold:icy"'
p233
I235
sS'"garage:car"'
p234
I236
sS'"cooking:eating"'
p235
I237
sS'"painter:portrait"'
p236
I238
sS'"branch:tree"'
p237
I239
sS'"house:room"'
p238
I240
sS'"closet:clothes"'
p239
I241
sS'"girl:person"'
p240
I242
sS'"professor:intellectual"'
p241
I243
sS'"tree:grow"'
p242
I244
sS'"hard:simple"'
p243
I245
sS'"peace:war"'
p244
I246
sS'"winter:christmas"'
p245
I247
sS'"money:dime"'
p246
I248
sS'"barber:scissors"'
p247
I249
sS'"murderer:evil"'
p248
I214
sS'"surgery:hospital"'
p249
I251
sS'"fire:flame"'
p250
I252
sS'"train:car"'
p251
I48
sS'"sediment:silt"'
p252
I254
sS'"paint:artistic"'
p253
I255
sS'"flower:stem"'
p254
I256
sS'"ring:bride"'
p255
I489
sS'"hurt:protect"'
p256
I258
sS'"office:computer"'
p257
I259
sS'"frown:distaste"'
p258
I260
sS'"athlete:championship"'
p259
I261
sS'"terror:fear"'
p260
I262
sS'"shirt:blouse"'
p261
I263
sS'"furniture:couch"'
p262
I264
sS'"shovel:spoon"'
p263
I265
sS'"tree:sapling"'
p264
I266
sS'"invalid:sickness"'
p265
I1018
sS'"collar:dog"'
p266
I268
sS'"bathroom:restroom"'
p267
I269
sS'"plastic:recycled"'
p268
I270
sS'"grace:ballerina"'
p269
I271
sS'"laugh:happiness"'
p270
I272
sS'"code:message"'
p271
I273
sS'"deafness:hearing"'
p272
I274
sS'"railing:stair"'
p273
I275
sS'"riverbed:water"'
p274
I276
sS'"bathroom:lavatory"'
p275
I277
sS'"bottle:baby"'
p276
I278
sS'"widow:husband"'
p277
I279
sS'"leukemia:blood"'
p278
I280
sS'"stimulus:response"'
p279
I281
sS'"mall:shopping"'
p280
I282
sS'"night:light"'
p281
I283
sS'"image:picture"'
p282
I284
sS'"bright:dark"'
p283
I285
sS'"discrimination:separate"'
p284
I1678
sS'"pregnancy:development"'
p285
I287
sS'"paper:flimsy"'
p286
I288
sS'"fast:run"'
p287
I289
sS'"read:learn"'
p288
I290
sS'"addict:use"'
p289
I291
sS'"learning:study"'
p290
I292
sS'"good:bad"'
p291
I701
sS'"good:evil"'
p292
I294
sS'"salty:sweet"'
p293
I702
sS'"match:wood"'
p294
I296
sS'"man:boyhood"'
p295
I297
sS'"clerk:customer"'
p296
I298
sS'"art:sculpture"'
p297
I299
sS'"calculator:add"'
p298
I300
sS'"spring:breeze"'
p299
I1868
sS'"caterpillar:butterfly"'
p300
I301
sS'"desert:flood"'
p301
I705
sS'"adult:job"'
p302
I303
sS'"makeup:face"'
p303
I1876
sS'"withdrawal:timid"'
p304
I304
sS'"cloud:moisture"'
p305
I305
sS'"nod:agreement"'
p306
I306
sS'"wealth:millionaire"'
p307
I1590
sS'"inhale:smell"'
p308
I307
sS'"judge:gavel"'
p309
I308
sS'"cat:sing"'
p310
I309
sS'"ocean:seascape"'
p311
I310
sS'"road:car"'
p312
I311
sS'"home:foyer"'
p313
I312
sS'"tycoon:wealthy"'
p314
I313
sS'"student:education"'
p315
I314
sS'"boy:man"'
p316
I315
sS'"biography:celebrity"'
p317
I19
sS'"lower:volume"'
p318
I317
sS'"bush:azalea"'
p319
I318
sS'"cook:eat"'
p320
I30
sS'"traveler:destination"'
p321
I320
sS'"instrument:violin"'
p322
I321
sS'"daisy:flower"'
p323
I322
sS'"young:old"'
p324
I323
sS'"sock:thread"'
p325
I324
sS'"case:evidence"'
p326
I325
sS'"meat:ham"'
p327
I326
sS'"chopping:cooking"'
p328
I327
sS'"miscarriage:fetus"'
p329
I328
sS'"owner:property"'
p330
I329
sS'"bed:sleep"'
p331
I330
sS'"adult:baby"'
p332
I331
sS'"object:tangible"'
p333
I332
sS'"play:instrument"'
p334
I333
sS'"dig:hole"'
p335
I334
sS'"jug:milk"'
p336
I335
sS'"rain:damp"'
p337
I336
sS'"smile:happiness"'
p338
I337
sS'"quiet:noisy"'
p339
I338
sS'"happy:contentment"'
p340
I339
sS'"dresser:clothes"'
p341
I340
sS'"heat:sweat"'
p342
I341
sS'"kind:loving"'
p343
I342
sS'"religion:disciple"'
p344
I343
sS'"surgeon:scalpel"'
p345
I344
sS'"simple:confuse"'
p346
I345
sS'"war:weapon"'
p347
I346
sS'"sun:shine"'
p348
I347
sS'"weakness:structure"'
p349
I348
sS'"happiness:joy"'
p350
I349
sS'"lawyer:justice"'
p351
I350
sS'"outline:composition"'
p352
I351
sS'"electricity:lamp"'
p353
I352
sS'"board:nail"'
p354
I353
sS'"manager:employee"'
p355
I355
sS'"boost:price"'
p356
I356
sS'"water:spill"'
p357
I357
sS'"pen:writer"'
p358
I358
sS'"fix:broken"'
p359
I360
sS'"arrogance:confident"'
p360
I361
sS'"sound:recording"'
p361
I362
sS'"grape:raisin"'
p362
I363
sS'"sale:shopping"'
p363
I364
sS'"tree:bush"'
p364
I365
sS'"child:youth"'
p365
I366
sS'"moon:full"'
p366
I367
sS'"ball:sport"'
p367
I368
sS'"gasoline:fuel"'
p368
I369
sS'"alcohol:drunkenness"'
p369
I370
sS'"wave:crash"'
p370
I371
sS'"kiss:passion"'
p371
I372
sS'"bird:swan"'
p372
I1696
sS'"scream:angry"'
p373
I374
sS'"bolt:nut"'
p374
I375
sS'"book:novel"'
p375
I376
sS'"referee:whistle"'
p376
I377
sS'"cat:mouse"'
p377
I378
sS'"pound:ounce"'
p378
I379
sS'"physician:degree"'
p379
I380
sS'"composer:song"'
p380
I382
sS'"driver:license"'
p381
I383
sS'"flock:bird"'
p382
I384
sS'"learn:skill"'
p383
I385
sS'"glass:shattered"'
p384
I386
sS'"musician:sing"'
p385
I387
sS'"run:zoom"'
p386
I388
sS'"finger:ring"'
p387
I389
sS'"queen:throne"'
p388
I391
sS'"lie:dishonesty"'
p389
I392
sS'"sand:beach"'
p390
I393
sS'"proprietor:customer"'
p391
I394
sS'"female:male"'
p392
I395
sS'"hurt:victim"'
p393
I396
sS'"seamstress:dress"'
p394
I397
sS'"doctor:degree"'
p395
I1702
sS'"diploma:student"'
p396
I399
sS'"purchase:shop"'
p397
I400
sS'"utensil:spoon"'
p398
I504
sS'"fragile:break"'
p399
I402
sS'"instruct:subordinate"'
p400
I403
sS'"tailor:sew"'
p401
I519
sS'"notebook:paper"'
p402
I405
sS'"aversion:hatred"'
p403
I406
sS'"tip:waiter"'
p404
I407
sS'"student:certification"'
p405
I408
sS'"playground:slide"'
p406
I409
sS'"clothes:dresser"'
p407
I410
sS'"protect:vulnerable"'
p408
I411
sS'"pace:running"'
p409
I412
sS'"page:paragraph"'
p410
I413
sS'"boat:marina"'
p411
I414
sS'"preacher:congregation"'
p412
I415
sS'"door:close"'
p413
I416
sS'"air:puff"'
p414
I417
sS'"head:hat"'
p415
I418
sS'"attraction:lust"'
p416
I419
sS'"stab:wound"'
p417
I420
sS'"cruel:help"'
p418
I421
sS'"chair:leg"'
p419
I606
sS'"novice:inexperience"'
p420
I423
sS'"store:cart"'
p421
I424
sS'"handshake:agreement"'
p422
I426
sS'"boy:gender"'
p423
I427
sS'"doctor:stethoscope"'
p424
I428
sS'"dough:bread"'
p425
I429
sS'"stencil:graphics"'
p426
I430
sS'"marriage:license"'
p427
I638
sS'"atheist:worship"'
p428
I432
sS'"incubation:growth"'
p429
I649
sS'"fight:enemy"'
p430
I434
sS'"flood:water"'
p431
I435
sS'"athlete:medal"'
p432
I437
sS'"duck:duckling"'
p433
I438
sS'"clothing:sock"'
p434
I439
sS'"history:past"'
p435
I440
sS'"bullet:gun"'
p436
I441
sS'"army:soldier"'
p437
I442
sS'"desk:button"'
p438
I443
sS'"summary:book"'
p439
I444
sS'"baby:bottle"'
p440
I445
sS'"wealthy:poor"'
p441
I446
sS'"degree:lawyer"'
p442
I447
sS'"writer:story"'
p443
I448
sS'"education:enlightenment"'
p444
I760
sS'"sky:ceiling"'
p445
I450
sS'"orchard:apple"'
p446
I451
sS'"top:hill"'
p447
I452
sS'"state:county"'
p448
I1046
sS'"bedroom:bed"'
p449
I454
sS'"visit:sick"'
p450
I781
sS'"earplug:ear"'
p451
I456
sS'"apple:food"'
p452
I457
sS'"earring:ear"'
p453
I458
sS'"instrument:piano"'
p454
I459
sS'"driver:truck"'
p455
I460
sS'"development:plan"'
p456
I461
sS'"bicycle:wheel"'
p457
I462
sS'"season:food"'
p458
I463
sS'"preach:parishioner"'
p459
I464
sS'"idea:patent"'
p460
I465
sS'"bad:good"'
p461
I466
sS'"money:paper"'
p462
I467
sS'"scarf:neck"'
p463
I468
sS'"audition:actor"'
p464
I469
sS'"eater:food"'
p465
I470
sS'"spin:twirl"'
p466
I471
sS'"crash:wave"'
p467
I472
sS'"wave:acknowledgment"'
p468
I474
sS'"rise:tide"'
p469
I912
sS'"crawl:rapid"'
p470
I476
sS'"duckling:duck"'
p471
I477
sS'"mother:father"'
p472
I478
sS'"clergyman:sin"'
p473
I479
sS'"mother:child"'
p474
I480
sS'"sink:dense"'
p475
I481
sS'"worm:snake"'
p476
I1374
sS'"baby:family"'
p477
I482
sS'"container:jug"'
p478
I483
sS'"bottle:cylinder"'
p479
I484
sS'"nail:board"'
p480
I485
sS'"politician:senator"'
p481
I486
sS'"food:apple"'
p482
I664
sS'"pain:agony"'
p483
I487
sS'"fix:addict"'
p484
I819
sS'"embarrassed:blush"'
p485
I488
sS'"musician:play"'
p486
I490
sS'"red:blue"'
p487
I492
sS'"pimple:skin"'
p488
I493
sS'"bike:path"'
p489
I494
sS'"donation:charity"'
p490
I495
sS'"leaf:chlorophyll"'
p491
I496
sS'"sign:direction"'
p492
I497
sS'"disease:cure"'
p493
I498
sS'"beginning:middle"'
p494
I499
sS'"bakery:cake"'
p495
I500
sS'"chat:gossip"'
p496
I501
sS'"curious:investigation"'
p497
I502
sS'"love:adore"'
p498
I503
sS'"reach:hold"'
p499
I401
sS'"elderly:retirement"'
p500
I505
sS'"man:tall"'
p501
I506
sS'"flock:sheep"'
p502
I507
sS'"church:nave"'
p503
I508
sS'"patient:health"'
p504
I89
sS'"adolescence:acne"'
p505
I510
sS'"park:playing"'
p506
I511
sS'"foil:plan"'
p507
I512
sS'"root:tip"'
p508
I513
sS'"walk:slow"'
p509
I514
sS'"wheel:car"'
p510
I515
sS'"snarl:anger"'
p511
I516
sS'"sell:price"'
p512
I517
sS'"sleep:lay"'
p513
I518
sS'"graduation:diploma"'
p514
I404
sS'"seat:stool"'
p515
I520
sS'"blue:red"'
p516
I521
sS'"pillow:soft"'
p517
I522
sS'"closet:clothing"'
p518
I523
sS'"rim:cup"'
p519
I525
sS'"automobile:transportation"'
p520
I526
sS'"vet:animal"'
p521
I527
sS'"mistake:regret"'
p522
I528
sS'"sofa:chair"'
p523
I529
sS'"sink:rise"'
p524
I530
sS'"child:work"'
p525
I531
sS'"freeze:thaw"'
p526
I532
sS'"hand:finger"'
p527
I533
sS'"bird:robin"'
p528
I534
sS'"male:female"'
p529
I535
sS'"image:photograph"'
p530
I536
sS'"dirt:cleanliness"'
p531
I537
sS'"inspire:follower"'
p532
I538
sS'"bread:flour"'
p533
I539
sS'"herb:basil"'
p534
I540
sS'"firework:chemical"'
p535
I541
sS'"apple:red"'
p536
I542
sS'"illness:discomfort"'
p537
I543
sS'"dark:light"'
p538
I544
sS'"fawn:deer"'
p539
I545
sS'"mechanic:wrench"'
p540
I546
sS'"preservative:salt"'
p541
I547
sS'"wine:vintner"'
p542
I548
sS'"basement:victim"'
p543
I549
sS'"fence:screen"'
p544
I550
sS'"spinner:yarn"'
p545
I551
sS'"pharmacy:medicine"'
p546
I552
sS'"bank:loans"'
p547
I553
sS'"gestation:development"'
p548
I554
sS'"workout:sweat"'
p549
I555
sS'"headstone:marble"'
p550
I556
sS'"arrest:trial"'
p551
I557
sS'"contentment:happy"'
p552
I558
sS'"forgive:insult"'
p553
I559
sS'"color:red"'
p554
I560
sS'"car:drive"'
p555
I561
sS'"ocean:sea"'
p556
I562
sS'"adulthood:work"'
p557
I563
sS'"computer:screen"'
p558
I564
sS'"home:tree"'
p559
I565
sS'"row:boat"'
p560
I566
sS'"table:wood"'
p561
I567
sS'"fuck:rape"'
p562
I568
sS'"trout:salmon"'
p563
I569
sS'"lock:gate"'
p564
I570
sS'"joy:despair"'
p565
I571
sS'"desert:evergreen"'
p566
I572
sS'"vegetarian:hunt"'
p567
I573
sS'"adolescence:puberty"'
p568
I574
sS'"crime:evidence"'
p569
I575
sS'"fire:warmth"'
p570
I576
sS'"college:degree"'
p571
I577
sS'"pen:pencil"'
p572
I578
sS'"scar:beauty"'
p573
I579
sS'"boxer:fight"'
p574
I1385
sS'"sell:customer"'
p575
I581
sS'"screen:computer"'
p576
I582
sS'"dog:bitch"'
p577
I583
sS'"cloud:rain"'
p578
I1736
sS'"grow:tree"'
p579
I585
sS'"shattered:glass"'
p580
I586
sS'"child:lecture"'
p581
I587
sS'"dish:bowl"'
p582
I1387
sS'"freedom:hostage"'
p583
I589
sS'"crack:mirror"'
p584
I590
sS'"herd:cow"'
p585
I591
sS'"refinery:gas"'
p586
I592
sS'"screwdriver:nail"'
p587
I593
sS'"saturation:hue"'
p588
I594
sS'"morning:breakfast"'
p589
I595
sS'"beautiful:plain"'
p590
I596
sS'"dog:poodle"'
p591
I597
sS'"play:enjoy"'
p592
I1389
sS'"drinking:bar"'
p593
I599
sS'"kitchen:food"'
p594
I600
sS'"sedan:coupe"'
p595
I601
sS'"minute:second"'
p596
I602
sS'"infant:toddler"'
p597
I603
sS'"giggle:laugh"'
p598
I604
sS'"cup:lid"'
p599
I1067
sS'"groom:horse"'
p600
I422
sS'"wet:towel"'
p601
I607
sS'"cake:slice"'
p602
I608
sS'"disagreement:anger"'
p603
I609
sS'"studio:art"'
p604
I610
sS'"cordless:phone"'
p605
I611
sS'"battery:phone"'
p606
I612
sS'"nanny:child"'
p607
I613
sS'"game:referee"'
p608
I614
sS'"animal:dog"'
p609
I615
sS'"eat:fork"'
p610
I616
sS'"old:youth"'
p611
I617
sS'"study:understanding"'
p612
I618
sS'"confident:arrogance"'
p613
I619
sS'"boy:girl"'
p614
I381
sS'"pride:embarrassment"'
p615
I621
sS'"phone:cordless"'
p616
I623
sS'"glass:cup"'
p617
I624
sS'"pour:shower"'
p618
I625
sS'"princess:tiara"'
p619
I626
sS'"farmer:harvest"'
p620
I627
sS'"orator:audience"'
p621
I629
sS'"goal:score"'
p622
I630
sS'"phone:call"'
p623
I631
sS'"script:movie"'
p624
I632
sS'"exhaustion:rest"'
p625
I633
sS'"run:exercise"'
p626
I634
sS'"student:essay"'
p627
I1741
sS'"cook:stove"'
p628
I436
sS'"bandage:sling"'
p629
I637
sS'"state:city"'
p630
I639
sS'"lipstick:red"'
p631
I640
sS'"bleach:stain"'
p632
I641
sS'"box:cardboard"'
p633
I642
sS'"progress:regress"'
p634
I643
sS'"winner:victory"'
p635
I644
sS'"kitchen:house"'
p636
I645
sS'"treat:patient"'
p637
I1073
sS'"hood:hair"'
p638
I647
sS'"fire:burn"'
p639
I648
sS'"clothes:iron"'
p640
I433
sS'"beer:wine"'
p641
I650
sS'"gossip:chat"'
p642
I651
sS'"weakness:strength"'
p643
I652
sS'"thirst:water"'
p644
I653
sS'"abode:house"'
p645
I654
sS'"lie:confess"'
p646
I655
sS'"kid:child"'
p647
I656
sS'"draft:development"'
p648
I1744
sS'"in:out"'
p649
I658
sS'"building:lobby"'
p650
I659
sS'"injury:pain"'
p651
I660
sS'"team:player"'
p652
I661
sS'"waiter:tip"'
p653
I662
sS'"clothes:body"'
p654
I663
sS'"full:empty"'
p655
I61
sS'"honesty:deception"'
p656
I665
sS'"food:eat"'
p657
I667
sS'"doctor:hurt"'
p658
I1078
sS'"old:young"'
p659
I669
sS'"sand:rough"'
p660
I670
sS'"explosion:damage"'
p661
I671
sS'"rodent:mouse"'
p662
I672
sS'"tyranny:freedom"'
p663
I673
sS'"blindness:vision"'
p664
I674
sS'"dead:breathe"'
p665
I676
sS'"formula:equation"'
p666
I677
sS'"betray:confidant"'
p667
I678
sS'"tree:flower"'
p668
I679
sS'"sadness:depression"'
p669
I680
sS'"thin:fat"'
p670
I681
sS'"fun:boring"'
p671
I682
sS'"fiction:poetry"'
p672
I683
sS'"lay:sleep"'
p673
I684
sS'"lawn:grass"'
p674
I685
sS'"horn:mouthpiece"'
p675
I686
sS'"eating:restaurant"'
p676
I215
sS'"slavery:freedom"'
p677
I688
sS'"smile:sneer"'
p678
I689
sS'"book:summary"'
p679
I690
sS'"entrepreneur:wealth"'
p680
I691
sS'"cruel:kindness"'
p681
I692
sS'"sculptor:sculpture"'
p682
I693
sS'"fork:utensil"'
p683
I694
sS'"oven:cook"'
p684
I1410
sS'"sun:darkness"'
p685
I695
sS'"blackboard:chalk"'
p686
I696
sS'"toe:foot"'
p687
I697
sS'"question:suspect"'
p688
I698
sS'"birth:death"'
p689
I1531
sS'"book:cover"'
p690
I699
sS'"port:starboard"'
p691
I700
sS'"steel:strength"'
p692
I293
sS'"mill:flour"'
p693
I295
sS'"wash:dirty"'
p694
I703
sS'"emotion:song"'
p695
I704
sS'"weapon:spear"'
p696
I302
sS'"murderer:help"'
p697
I706
sS'"student:graduate"'
p698
I707
sS'"textbook:reader"'
p699
I708
sS'"sleep:doze"'
p700
I1749
sS'"pacifist:peace"'
p701
I710
sS'"ignorance:learning"'
p702
I711
sS'"concert:musician"'
p703
I712
sS'"forest:sand"'
p704
I713
sS'"disease:sickness"'
p705
I714
sS'"teacher:chalk"'
p706
I715
sS'"seat:chair"'
p707
I716
sS'"sing:musical"'
p708
I717
sS'"wheel:axle"'
p709
I718
sS'"leash:dog"'
p710
I719
sS'"sill:window"'
p711
I720
sS'"anger:glare"'
p712
I721
sS'"coach:athlete"'
p713
I722
sS'"avarice:scheme"'
p714
I723
sS'"horse:pony"'
p715
I724
sS'"forest:clearing"'
p716
I725
sS'"frown:anger"'
p717
I726
sS'"people:city"'
p718
I727
sS'"hit:injury"'
p719
I728
sS'"restaurant:chef"'
p720
I729
sS'"seller:buyer"'
p721
I1084
sS'"fat:thin"'
p722
I731
sS'"hospital:patient"'
p723
I732
sS'"drought:water"'
p724
I733
sS'"study:learn"'
p725
I734
sS'"boss:employee"'
p726
I735
sS'"wife:ring"'
p727
I736
sS'"vendor:consumer"'
p728
I737
sS'"day:dream"'
p729
I738
sS'"mad:anger"'
p730
I739
sS'"gas:refinery"'
p731
I1525
sS'"leg:body"'
p732
I740
sS'"kitchen:oven"'
p733
I741
sS'"sleepy:alert"'
p734
I742
sS'"knowledge:ignorance"'
p735
I743
sS'"amputation:body"'
p736
I744
sS'"paper:pen"'
p737
I745
sS'"boat:ship"'
p738
I746
sS'"equation:formula"'
p739
I747
sS'"hood:head"'
p740
I748
sS'"photo:object"'
p741
I749
sS'"wealth:debt"'
p742
I750
sS'"license:drive"'
p743
I752
sS'"pencil:pen"'
p744
I753
sS'"fish:aquarium"'
p745
I1819
sS'"hotel:bed"'
p746
I754
sS'"habitual:routine"'
p747
I1857
sS'"student:school"'
p748
I755
sS'"associate:partner"'
p749
I756
sS'"electricity:stove"'
p750
I757
sS'"boredom:fun"'
p751
I758
sS'"millionaire:wealth"'
p752
I759
sS'"water:shower"'
p753
I449
sS'"reader:read"'
p754
I761
sS'"virgin:purity"'
p755
I762
sS'"dog:tail"'
p756
I763
sS'"scalpel:surgeon"'
p757
I764
sS'"hydrogen:water"'
p758
I765
sS'"earth:geology"'
p759
I767
sS'"jog:exercise"'
p760
I768
sS'"bookcase:shelf"'
p761
I769
sS'"model:architecture"'
p762
I770
sS'"study:learning"'
p763
I771
sS'"movie:film"'
p764
I772
sS'"table:desk"'
p765
I773
sS'"refrigerator:appliance"'
p766
I774
sS'"knife:stab"'
p767
I775
sS'"record:cassette"'
p768
I776
sS'"zoo:animal"'
p769
I777
sS'"river:delta"'
p770
I778
sS'"speaker:stereo"'
p771
I779
sS'"meteorology:atmosphere"'
p772
I780
sS'"farm:growing"'
p773
I455
sS'"hospital:wing"'
p774
I782
sS'"carton:milk"'
p775
I783
sS'"plain:beautiful"'
p776
I784
sS'"payment:debtor"'
p777
I785
sS'"funeral:mourner"'
p778
I786
sS'"heat:hot"'
p779
I788
sS'"noise:silence"'
p780
I789
sS'"thunder:storm"'
p781
I790
sS'"ice:cold"'
p782
I791
sS'"bone:brittle"'
p783
I792
sS'"go:stay"'
p784
I793
sS'"baby:helpless"'
p785
I794
sS'"food:meal"'
p786
I795
sS'"repair:broken"'
p787
I796
sS'"fire:cold"'
p788
I797
sS'"chef:knife"'
p789
I798
sS'"angelic:evil"'
p790
I799
sS'"birthday:celebration"'
p791
I800
sS'"acceleration:speed"'
p792
I801
sS'"kitchen:cooking"'
p793
I802
sS'"force:agree"'
p794
I803
sS'"work:salary"'
p795
I1536
sS'"mend:clothing"'
p796
I804
sS'"conception:birth"'
p797
I897
sS'"mammal:hair"'
p798
I806
sS'"ribbon:winner"'
p799
I807
sS'"sunburn:painful"'
p800
I808
sS'"gas:furnace"'
p801
I809
sS'"cowardly:surrender"'
p802
I810
sS'"sew:needle"'
p803
I811
sS'"vacation:travel"'
p804
I812
sS'"cat:Siamese"'
p805
I813
sS'"fight:attack"'
p806
I814
sS'"freedom:infringement"'
p807
I815
sS'"fish:fin"'
p808
I816
sS'"spring:growth"'
p809
I817
sS'"twist:sinuous"'
p810
I818
sS'"textbook:subject"'
p811
I473
sS'"hair:wig"'
p812
I820
sS'"cement:solid"'
p813
I821
sS'"donate:charity"'
p814
I822
sS'"bell:dinner"'
p815
I1789
sS'"house:bedroom"'
p816
I824
sS'"yellow:caution"'
p817
I1034
sS'"prison:release"'
p818
I826
sS'"adoration:hatred"'
p819
I827
sS'"corpse:death"'
p820
I828
sS'"height:low"'
p821
I829
sS'"bed:hotel"'
p822
I830
sS'"telephone:call"'
p823
I1766
sS'"drink:hydrate"'
p824
I832
sS'"office:desk"'
p825
I833
sS'"sketch:painting"'
p826
I834
sS'"pillow:cushion"'
p827
I835
sS'"increment:number"'
p828
I836
sS'"pitcher:baseball"'
p829
I837
sS'"red:stop"'
p830
I838
sS'"sweater:wool"'
p831
I839
sS'"celebrity:privacy"'
p832
I840
sS'"soldier:troop"'
p833
I841
sS'"professor:student"'
p834
I842
sS'"baby:mature"'
p835
I843
sS'"hunt:deer"'
p836
I844
sS'"anatomy:body"'
p837
I845
sS'"art:abstract"'
p838
I846
sS'"picture:frame"'
p839
I847
sS'"salesperson:buyer"'
p840
I848
sS'"road:highway"'
p841
I849
sS'"experience:confidence"'
p842
I850
sS'"house:tent"'
p843
I851
sS'"arrhythmia:heartbeat"'
p844
I853
sS'"sweep:broom"'
p845
I854
sS'"accept:reject"'
p846
I856
sS'"hall:music"'
p847
I857
sS'"ocean:water"'
p848
I858
sS'"sleep:tiredness"'
p849
I1215
sS'"athlete:record"'
p850
I860
sS'"garment:skirt"'
p851
I861
sS'"summer:swim"'
p852
I862
sS'"sex:pregnancy"'
p853
I863
sS'"letter:stamp"'
p854
I864
sS'"trim:tree"'
p855
I1259
sS'"artist:masterpiece"'
p856
I866
sS'"wrapper:package"'
p857
I867
sS'"prisoner:freedom"'
p858
I868
sS'"borrow:bank"'
p859
I869
sS'"cushion:chair"'
p860
I973
sS'"bouquet:garden"'
p861
I871
sS'"advertise:promote"'
p862
I872
sS'"narrative:epilogue"'
p863
I873
sS'"vintner:wine"'
p864
I874
sS'"ditch:road"'
p865
I1302
sS'"bible:salvation"'
p866
I876
sS'"parent:child"'
p867
I877
sS'"maid:broom"'
p868
I878
sS'"gambler:millionaire"'
p869
I879
sS'"blemish:skin"'
p870
I880
sS'"cigarette:smoke"'
p871
I1344
sS'"kiss:love"'
p872
I882
sS'"writer:pen"'
p873
I883
sS'"stutter:speech"'
p874
I884
sS'"frigid:cold"'
p875
I885
sS'"porch:house"'
p876
I886
sS'"coldness:shiver"'
p877
I887
sS'"voice:mute"'
p878
I888
sS'"moisture:cloud"'
p879
I890
sS'"appliance:fridge"'
p880
I891
sS'"note:symphony"'
p881
I892
sS'"athlete:body"'
p882
I893
sS'"darkness:light"'
p883
I894
sS'"drinking:alcoholic"'
p884
I895
sS'"learn:study"'
p885
I896
sS'"steel:tough"'
p886
I805
sS'"compost:fertilizer"'
p887
I898
sS'"flour:bread"'
p888
I899
sS'"snow:cold"'
p889
I900
sS'"rain:storm"'
p890
I901
sS'"police:gun"'
p891
I902
sS'"tall:man"'
p892
I903
sS'"blender:puree"'
p893
I904
sS'"alcoholic:drinking"'
p894
I905
sS'"movie:scene"'
p895
I906
sS'"chemical:firework"'
p896
I907
sS'"wash:clean"'
p897
I908
sS'"thirst:drink"'
p898
I909
sS'"push:shove"'
p899
I910
sS'"book:magazine"'
p900
I911
sS'"person:girl"'
p901
I475
sS'"candy:sweet"'
p902
I913
sS'"bigot:hateful"'
p903
I914
sS'"meal:dessert"'
p904
I915
sS'"strategy:victory"'
p905
I916
sS'"cough:sickness"'
p906
I917
sS'"bunch:grape"'
p907
I918
sS'"lead:member"'
p908
I919
sS'"cherry:red"'
p909
I920
sS'"electricity:television"'
p910
I921
sS'"parent:hate"'
p911
I1818
sS'"deer:fawn"'
p912
I1785
sS'"menu:chef"'
p913
I923
sS'"loss:grief"'
p914
I924
sS'"tiredness:rest"'
p915
I925
sS'"flexible:bent"'
p916
I926
sS'"warm:cool"'
p917
I927
sS'"peace:armistice"'
p918
I928
sS'"license:permission"'
p919
I1787
sS'"funeral:coffin"'
p920
I930
sS'"bee:beehive"'
p921
I931
sS'"dresser:wardrobe"'
p922
I932
sS'"dig:ditch"'
p923
I933
sS'"burn:flammable"'
p924
I934
sS'"tiredness:sleep"'
p925
I935
sS'"heart:beat"'
p926
I936
sS'"car:Honda"'
p927
I937
sS'"monitor:computer"'
p928
I939
sS'"glass:silicone"'
p929
I940
sS'"drink:wine"'
p930
I941
sS'"fat:exercise"'
p931
I316
sS'"dim:light"'
p932
I942
sS'"airplane:fly"'
p933
I943
sS'"operate:machine"'
p934
I944
sS'"hem:shorten"'
p935
I945
sS'"camel:ocean"'
p936
I946
sS'"chair:furniture"'
p937
I947
sS'"footwear:boot"'
p938
I1126
sS'"computer:mouse"'
p939
I949
sS'"kitten:puppy"'
p940
I950
sS'"wall:paint"'
p941
I951
sS'"hot:burning"'
p942
I952
sS'"burn:heat"'
p943
I953
sS'"white:black"'
p944
I954
sS'"car:road"'
p945
I1549
sS'"friend:betray"'
p946
I955
sS'"middle:beginning"'
p947
I1127
sS'"food:season"'
p948
I957
sS'"house:kitchen"'
p949
I425
sS'"write:paper"'
p950
I959
sS'"sing:musician"'
p951
I960
sS'"chain:link"'
p952
I961
sS'"cold:frigid"'
p953
I1459
sS'"car:mustang"'
p954
I963
sS'"order:soldier"'
p955
I964
sS'"plain:tree"'
p956
I965
sS'"band:musician"'
p957
I966
sS'"design:shopper"'
p958
I967
sS'"appliance:refrigerator"'
p959
I968
sS'"picture:drawing"'
p960
I969
sS'"deficiency:health"'
p961
I970
sS'"shoe:boot"'
p962
I1700
sS'"disgrace:embarrassment"'
p963
I971
sS'"elderly:youth"'
p964
I972
sS'"request:beg"'
p965
I974
sS'"shower:pour"'
p966
I975
sS'"glare:anger"'
p967
I976
sS'"mountain:move"'
p968
I977
sS'"buoyant:float"'
p969
I978
sS'"poison:die"'
p970
I979
sS'"plan:development"'
p971
I980
sS'"family:father"'
p972
I981
sS'"blow:pain"'
p973
I45
sS'"speed:movement"'
p974
I983
sS'"ocean:Atlantic"'
p975
I984
sS'"homework:fun"'
p976
I985
sS'"drain:tub"'
p977
I986
sS'"almond:pecan"'
p978
I987
sS'"building:floor"'
p979
I988
sS'"computer:chip"'
p980
I989
sS'"debate:argue"'
p981
I990
sS'"geology:earth"'
p982
I991
sS'"weather:meteorology"'
p983
I992
sS'"flower:daisy"'
p984
I993
sS'"flimsy:paper"'
p985
I994
sS'"hem:skirt"'
p986
I995
sS'"diamond:shiny"'
p987
I996
sS'"programmer:code"'
p988
I997
sS'"jump:high"'
p989
I998
sS'"employee:check"'
p990
I999
sS'"farm:tractor"'
p991
I1000
sS'"baptism:priest"'
p992
I146
sS'"hill:top"'
p993
I1002
sS'"villain:evil"'
p994
I1003
sS'"lion:tiger"'
p995
I1004
sS'"church:sanctuary"'
p996
I1005
sS'"pessimist:hope"'
p997
I1006
sS'"battery:laptop"'
p998
I1007
sS'"flame:blister"'
p999
I1008
sS'"happy:smile"'
p1000
I1009
sS'"steal:gain"'
p1001
I1010
sS'"sidewalk:yard"'
p1002
I1011
sS'"invalid:illness"'
p1003
I1012
sS'"advertisement:desire"'
p1004
I1013
sS'"bark:cat"'
p1005
I1014
sS'"elder:youth"'
p1006
I1015
sS'"certificate:teacher"'
p1007
I1016
sS'"cloth:weaver"'
p1008
I1017
sS'"bank:money"'
p1009
I267
sS'"lamb:sheep"'
p1010
I1019
sS'"prescription:patient"'
p1011
I1020
sS'"talk:speech"'
p1012
I1021
sS'"sprint:fast"'
p1013
I1022
sS'"millionaire:riches"'
p1014
I1023
sS'"mica:mineral"'
p1015
I1024
sS'"lobby:building"'
p1016
I1025
sS'"cleanliness:dirt"'
p1017
I1026
sS'"ancient:modern"'
p1018
I1027
sS'"supermarket:aisle"'
p1019
I1028
sS'"novice:experience"'
p1020
I1029
sS'"freezer:ice"'
p1021
I1030
sS'"work:pensioner"'
p1022
I1031
sS'"charity:donate"'
p1023
I1032
sS'"chastity:nun"'
p1024
I1033
sS'"infant:understand"'
p1025
I825
sS'"sick:rest"'
p1026
I1035
sS'"scream:terror"'
p1027
I1036
sS'"check:employee"'
p1028
I1386
sS'"musician:music"'
p1029
I1469
sS'"water:wet"'
p1030
I1038
sS'"administrator:power"'
p1031
I1039
sS'"novel:foreword"'
p1032
I1040
sS'"sentence:criminal"'
p1033
I1041
sS'"seating:chair"'
p1034
I1043
sS'"currency:dollar"'
p1035
I1044
sS'"pensioner:work"'
p1036
I1045
sS'"bedroom:sleeping"'
p1037
I453
sS'"mix:blend"'
p1038
I1047
sS'"sport:ball"'
p1039
I1048
sS'"meteorology:weather"'
p1040
I1049
sS'"light:bright"'
p1041
I1050
sS'"tan:pale"'
p1042
I1051
sS'"flag:nation"'
p1043
I1052
sS'"bracelet:wrist"'
p1044
I1053
sS'"anxiety:breathe"'
p1045
I1054
sS'"sculpture:person"'
p1046
I1055
sS'"love:valentine"'
p1047
I1056
sS'"athlete:competition"'
p1048
I1057
sS'"cook:food"'
p1049
I1058
sS'"code:program"'
p1050
I1059
sS'"earthworm:segment"'
p1051
I1060
sS'"toddler:walking"'
p1052
I1061
sS'"concrete:cement"'
p1053
I1062
sS'"cold:frozen"'
p1054
I1063
sS'"refrigerator:food"'
p1055
I1064
sS'"cat:fur"'
p1056
I1065
sS'"biology:life"'
p1057
I1066
sS'"trophy:champion"'
p1058
I605
sS'"baby:cry"'
p1059
I1068
sS'"stress:headache"'
p1060
I1069
sS'"sheep:herd"'
p1061
I1582
sS'"coupe:sedan"'
p1062
I1070
sS'"follower:inspire"'
p1063
I1071
sS'"marriage:husband"'
p1064
I1072
sS'"pay:debtor"'
p1065
I646
sS'"table:bench"'
p1066
I1074
sS'"shot:disease"'
p1067
I1075
sS'"cave:entrance"'
p1068
I1076
sS'"light:lamp"'
p1069
I1077
sS'"summer:vacation"'
p1070
I668
sS'"school:university"'
p1071
I1079
sS'"tree:branch"'
p1072
I1080
sS'"map:topography"'
p1073
I1081
sS'"actor:oscar"'
p1074
I1082
sS'"inflation:price"'
p1075
I1083
sS'"equation:solution"'
p1076
I730
sS'"loom:cloth"'
p1077
I1085
sS'"tree:blood"'
p1078
I1086
sS'"paint:canvas"'
p1079
I1087
sS'"transportation:automobile"'
p1080
I1088
sS'"keyboard:calculator"'
p1081
I1089
sS'"homeless:poor"'
p1082
I1090
sS'"heat:fire"'
p1083
I1091
sS'"cell:body"'
p1084
I1092
sS'"ring:peal"'
p1085
I1093
sS'"crown:sovereignty"'
p1086
I1094
sS'"event:photograph"'
p1087
I1095
sS'"class:student"'
p1088
I1096
sS'"pimple:face"'
p1089
I1097
sS'"black:white"'
p1090
I1098
sS'"chef:oven"'
p1091
I1099
sS'"adult:childhood"'
p1092
I1100
sS'"conductor:baton"'
p1093
I1101
sS'"student:graduation"'
p1094
I1102
sS'"intellectual:professor"'
p1095
I1103
sS'"noise:music"'
p1096
I1104
sS'"drive:golf"'
p1097
I1105
sS'"rocket:fuel"'
p1098
I1106
sS'"lavatory:sink"'
p1099
I1107
sS'"sun:tan"'
p1100
I1108
sS'"song:sing"'
p1101
I1109
sS'"bar:cocktail"'
p1102
I1110
sS'"education:expertise"'
p1103
I1111
sS'"grape:vine"'
p1104
I1826
sS'"money:poverty"'
p1105
I1113
sS'"chapter:page"'
p1106
I1114
sS'"lie:whereabouts"'
p1107
I1115
sS'"teacher:certificate"'
p1108
I1116
sS'"ship:deck"'
p1109
I1630
sS'"high:down"'
p1110
I1117
sS'"paint:picture"'
p1111
I1118
sS'"education:ignorance"'
p1112
I1119
sS'"strong:weak"'
p1113
I1120
sS'"rich:poverty"'
p1114
I1121
sS'"pregnancy:birth"'
p1115
I1122
sS'"acid:base"'
p1116
I1123
sS'"father:mother"'
p1117
I1124
sS'"compliment:flatter"'
p1118
I187
sS'"instrument:flute"'
p1119
I1830
sS'"sapling:tree"'
p1120
I948
sS'"medicine:disease"'
p1121
I956
sS'"preach:disciple"'
p1122
I1128
sS'"repair:damaged"'
p1123
I1129
sS'"anger:slap"'
p1124
I1130
sS'"house:abode"'
p1125
I1131
sS'"treble:bass"'
p1126
I1132
sS'"sweet:sour"'
p1127
I1133
sS'"butterfly:cocoon"'
p1128
I1134
sS'"hammer:pound"'
p1129
I1833
sS'"armistice:peace"'
p1130
I1136
sS'"pastor:preach"'
p1131
I1137
sS'"yard:grass"'
p1132
I1138
sS'"gallon:quart"'
p1133
I1139
sS'"book:page"'
p1134
I1140
sS'"prisoner:punishment"'
p1135
I1141
sS'"poor:shop"'
p1136
I1142
sS'"fight:war"'
p1137
I1143
sS'"frog:tail"'
p1138
I1144
sS'"spoon:shovel"'
p1139
I1145
sS'"bedtime:story"'
p1140
I1146
sS'"hug:comfort"'
p1141
I1147
sS'"heat:warm"'
p1142
I1148
sS'"dream:fantasize"'
p1143
I1149
sS'"seed:plant"'
p1144
I1150
sS'"reach:touch"'
p1145
I192
sS'"nice:evil"'
p1146
I1152
sS'"service:hymnal"'
p1147
I1153
sS'"emptiness:fill"'
p1148
I1154
sS'"blanket:soft"'
p1149
I1155
sS'"fire:heat"'
p1150
I1156
sS'"poor:money"'
p1151
I1840
sS'"landscape:photo"'
p1152
I1158
sS'"darken:color"'
p1153
I1159
sS'"head:hood"'
p1154
I1160
sS'"pool:swimming"'
p1155
I1161
sS'"teacher:learn"'
p1156
I1162
sS'"harm:safety"'
p1157
I1163
sS'"authority:ignorance"'
p1158
I1164
sS'"garden:plot"'
p1159
I1165
sS'"seat:couch"'
p1160
I1166
sS'"diploma:graduate"'
p1161
I1167
sS'"vine:grape"'
p1162
I1168
sS'"politician:office"'
p1163
I1169
sS'"object:shadow"'
p1164
I1170
sS'"expert:experience"'
p1165
I1222
sS'"salt:pepper"'
p1166
I1172
sS'"wrinkle:age"'
p1167
I1706
sS'"exercise:fatigue"'
p1168
I1173
sS'"hungry:fed"'
p1169
I1174
sS'"bulb:light"'
p1170
I1175
sS'"lubricant:oil"'
p1171
I1176
sS'"pack:wolf"'
p1172
I1177
sS'"silt:sediment"'
p1173
I1179
sS'"long:short"'
p1174
I1180
sS'"marina:boat"'
p1175
I1181
sS'"snow:warmth"'
p1176
I1182
sS'"access:password"'
p1177
I1183
sS'"faith:believe"'
p1178
I1184
sS'"fridge:appliance"'
p1179
I1185
sS'"immortal:die"'
p1180
I1186
sS'"murderer:flee"'
p1181
I1187
sS'"crack:glass"'
p1182
I1844
sS'"fireplace:fire"'
p1183
I1189
sS'"pain:treatment"'
p1184
I1190
sS'"shopkeeper:patron"'
p1185
I1191
sS'"oak:tree"'
p1186
I1192
sS'"bag:contain"'
p1187
I1193
sS'"sadness:cry"'
p1188
I1194
sS'"wounded:dead"'
p1189
I1845
sS'"alive:dead"'
p1190
I1196
sS'"moat:castle"'
p1191
I1197
sS'"hand:glove"'
p1192
I1846
sS'"shore:lake"'
p1193
I1199
sS'"song:sound"'
p1194
I1364
sS'"pizza:slice"'
p1195
I1201
sS'"kitten:cat"'
p1196
I1202
sS'"singer:contract"'
p1197
I1203
sS'"airplane:cockpit"'
p1198
I1204
sS'"infidelity:divorce"'
p1199
I1205
sS'"sword:knife"'
p1200
I1206
sS'"map:route"'
p1201
I1207
sS'"treat:dog"'
p1202
I1208
sS'"restaurant:food"'
p1203
I1209
sS'"star:brightness"'
p1204
I1210
sS'"costume:gender"'
p1205
I1211
sS'"dollar:currency"'
p1206
I1212
sS'"rich:poor"'
p1207
I1213
sS'"hangar:airplane"'
p1208
I1214
sS'"milk:carton"'
p1209
I859
sS'"fight:win"'
p1210
I1216
sS'"pain:medicate"'
p1211
I1217
sS'"money:rich"'
p1212
I1218
sS'"acknowledgement:signature"'
p1213
I1219
sS'"visit:stalk"'
p1214
I1220
sS'"complain:whine"'
p1215
I1221
sS'"low:up"'
p1216
I1171
sS'"cure:disease"'
p1217
I1223
sS'"arsonist:fire"'
p1218
I1224
sS'"juice:fruit"'
p1219
I1225
sS'"hermit:association"'
p1220
I1226
sS'"valentine:love"'
p1221
I1227
sS'"shelf:wall"'
p1222
I1228
sS'"fish:salmon"'
p1223
I1229
sS'"confidant:betray"'
p1224
I1230
sS'"preparation:disaster"'
p1225
I1231
sS'"unity:country"'
p1226
I1232
sS'"movie:comedy"'
p1227
I1233
sS'"lamp:sun"'
p1228
I1234
sS'"laugh:funny"'
p1229
I1235
sS'"hair:brown"'
p1230
I1236
sS'"scratch:cd"'
p1231
I1237
sS'"girl:woman"'
p1232
I1238
sS'"touch:grope"'
p1233
I1239
sS'"fruit:apple"'
p1234
I1240
sS'"hot:cold"'
p1235
I1241
sS'"hat:hair"'
p1236
I1242
sS'"praise:criticize"'
p1237
I1243
sS'"flour:sugar"'
p1238
I1244
sS'"prune:date"'
p1239
I1245
sS'"brick:concrete"'
p1240
I1246
sS'"alacrity:reluctant"'
p1241
I1247
sS'"peeling:cooking"'
p1242
I1248
sS'"poison:illness"'
p1243
I1249
sS'"student:degree"'
p1244
I1250
sS'"help:cruel"'
p1245
I1251
sS'"badge:authority"'
p1246
I1252
sS'"poop:eat"'
p1247
I1253
sS'"store:shopping"'
p1248
I1254
sS'"eat:fast"'
p1249
I1255
sS'"decline:health"'
p1250
I1256
sS'"happy:cry"'
p1251
I1257
sS'"cold:warm"'
p1252
I1258
sS'"room:chamber"'
p1253
I865
sS'"breakfast:morning"'
p1254
I1260
sS'"dog:leash"'
p1255
I1261
sS'"speed:slow"'
p1256
I1262
sS'"hospital:bed"'
p1257
I1263
sS'"euphoria:heroin"'
p1258
I1264
sS'"city:block"'
p1259
I1265
sS'"go:come"'
p1260
I1266
sS'"soften:voice"'
p1261
I1267
sS'"pregnancy:baby"'
p1262
I1858
sS'"rotten:stink"'
p1263
I1269
sS'"dryness:rain"'
p1264
I1270
sS'"exercise:healthy"'
p1265
I1271
sS'"vegetable:spinach"'
p1266
I1272
sS'"floor:sweep"'
p1267
I1273
sS'"toddler:crayon"'
p1268
I1509
sS'"buy:own"'
p1269
I1275
sS'"wandering:lost"'
p1270
I1276
sS'"degree:graduate"'
p1271
I1277
sS'"fence:hedge"'
p1272
I1278
sS'"morning:sunrise"'
p1273
I1279
sS'"contract:deal"'
p1274
I1280
sS'"soft:cushion"'
p1275
I1281
sS'"prescription:medication"'
p1276
I1282
sS'"performance:applause"'
p1277
I1284
sS'"shovel:snow"'
p1278
I1285
sS'"literature:book"'
p1279
I1286
sS'"barrio:community"'
p1280
I1287
sS'"owner:deed"'
p1281
I1288
sS'"fork:eat"'
p1282
I1289
sS'"scene:movie"'
p1283
I1290
sS'"fire:burnt"'
p1284
I1291
sS'"round:roll"'
p1285
I1292
sS'"happiness:smile"'
p1286
I1293
sS'"ocean:land"'
p1287
I1294
sS'"call:phone"'
p1288
I1295
sS'"broom:sweeper"'
p1289
I1296
sS'"fracture:heal"'
p1290
I1297
sS'"teacher:student"'
p1291
I1298
sS'"worker:librarian"'
p1292
I1299
sS'"youth:backpack"'
p1293
I1300
sS'"orange:juice"'
p1294
I875
sS'"medal:hero"'
p1295
I1303
sS'"programmer:computer"'
p1296
I95
sS'"license:driver"'
p1297
I1305
sS'"joy:depression"'
p1298
I1306
sS'"obesity:exercise"'
p1299
I1307
sS'"animal:pig"'
p1300
I1517
sS'"glass:bowl"'
p1301
I1309
sS'"childhood:adult"'
p1302
I1310
sS'"regret:mistake"'
p1303
I1311
sS'"question:answer"'
p1304
I1312
sS'"fight:defend"'
p1305
I1313
sS'"school:classroom"'
p1306
I1314
sS'"stick:attach"'
p1307
I1315
sS'"start:finish"'
p1308
I1316
sS'"factory:product"'
p1309
I1317
sS'"refinery:oil"'
p1310
I1318
sS'"driver:car"'
p1311
I222
sS'"north:south"'
p1312
I1320
sS'"dollar:purchase"'
p1313
I1321
sS'"pillow:mattress"'
p1314
I1322
sS'"publishing:writing"'
p1315
I1323
sS'"warning:trouble"'
p1316
I1324
sS'"novel:autobiography"'
p1317
I1325
sS'"baseboard:wall"'
p1318
I1326
sS'"up:down"'
p1319
I1327
sS'"anger:yell"'
p1320
I1328
sS'"stove:cook"'
p1321
I1520
sS'"sunscreen:sunburn"'
p1322
I1330
sS'"field:meadow"'
p1323
I1331
sS'"fast:car"'
p1324
I1332
sS'"egg:yolk"'
p1325
I1333
sS'"award:winner"'
p1326
I1334
sS'"paper:parchment"'
p1327
I1335
sS'"vacuum:carpet"'
p1328
I1336
sS'"airplane:hangar"'
p1329
I1337
sS'"remote:television"'
p1330
I1338
sS'"cylinder:bottle"'
p1331
I1339
sS'"antibiotic:infection"'
p1332
I1340
sS'"chair:sofa"'
p1333
I1341
sS'"apple:tree"'
p1334
I1342
sS'"cat:bark"'
p1335
I1343
sS'"sugar:energy"'
p1336
I881
sS'"frown:sadness"'
p1337
I1345
sS'"dog:furry"'
p1338
I1346
sS'"nail:hammer"'
p1339
I1347
sS'"ingestion:digestion"'
p1340
I1348
sS'"agenda:routine"'
p1341
I1349
sS'"astronaut:space"'
p1342
I1350
sS'"insult:provocation"'
p1343
I1351
sS'"ignite:burn"'
p1344
I1352
sS'"puppy:kitten"'
p1345
I1353
sS'"day:hour"'
p1346
I1354
sS'"tip:root"'
p1347
I1355
sS'"love:apathy"'
p1348
I1356
sS'"drunk:intoxication"'
p1349
I1357
sS'"switch:flip"'
p1350
I1358
sS'"sweetness:honey"'
p1351
I1359
sS'"musician:applause"'
p1352
I1360
sS'"pale:tan"'
p1353
I1361
sS'"shoot:kill"'
p1354
I1363
sS'"homeowner:door"'
p1355
I1200
sS'"chef:cook"'
p1356
I1365
sS'"book:story"'
p1357
I1366
sS'"pond:bowl"'
p1358
I1367
sS'"artist:art"'
p1359
I1368
sS'"injure:assault"'
p1360
I1369
sS'"water:thirst"'
p1361
I1370
sS'"dance:step"'
p1362
I1371
sS'"exercise:fitness"'
p1363
I1372
sS'"pod:whale"'
p1364
I1373
sS'"danger:flee"'
p1365
I751
sS'"liquid:solid"'
p1366
I1375
sS'"mechanic:car"'
p1367
I1376
sS'"faucet:pipe"'
p1368
I1377
sS'"evidence:case"'
p1369
I1378
sS'"wedding:marriage"'
p1370
I1878
sS'"thoughtful:contemplation"'
p1371
I1380
sS'"remote:tv"'
p1372
I1381
sS'"rest:exhaustion"'
p1373
I1382
sS'"church:preacher"'
p1374
I1383
sS'"violence:love"'
p1375
I1384
sS'"dinner:eating"'
p1376
I580
sS'"sea:ocean"'
p1377
I852
sS'"golden:gleam"'
p1378
I588
sS'"recipe:ingredient"'
p1379
I1388
sS'"build:destroy"'
p1380
I598
sS'"silence:dance"'
p1381
I1390
sS'"drop:slippery"'
p1382
I1391
sS'"collect:fee"'
p1383
I1457
sS'"clean:house"'
p1384
I1392
sS'"wheat:bread"'
p1385
I1393
sS'"absolve:sinner"'
p1386
I1394
sS'"patient:pressure"'
p1387
I1395
sS'"urban:city"'
p1388
I1396
sS'"slay:dragon"'
p1389
I1397
sS'"discipline:abuse"'
p1390
I1398
sS'"organization:club"'
p1391
I1399
sS'"silence:noise"'
p1392
I766
sS'"coast:east"'
p1393
I1401
sS'"fruit:grape"'
p1394
I1402
sS'"infinite:end"'
p1395
I1403
sS'"butcher:meat"'
p1396
I1404
sS'"burnish:shine"'
p1397
I1405
sS'"teacher:assignment"'
p1398
I1406
sS'"diploma:education"'
p1399
I1407
sS'"read:book"'
p1400
I1408
sS'"foreword:novel"'
p1401
I1409
sS'"insult:forgive"'
p1402
I1301
sS'"border:mexico"'
p1403
I1628
sS'"electricity:tv"'
p1404
I1411
sS'"automobile:trunk"'
p1405
I1412
sS'"talk:gossip"'
p1406
I1413
sS'"instrument:clarinet"'
p1407
I1414
sS'"knife:butcher"'
p1408
I1415
sS'"beautiful:ugly"'
p1409
I1416
sS'"rest:tiredness"'
p1410
I1417
sS'"fill:emptiness"'
p1411
I1418
sS'"nun:chastity"'
p1412
I1419
sS'"eat:satisfaction"'
p1413
I1420
sS'"tree:root"'
p1414
I1421
sS'"laugh:amusement"'
p1415
I1422
sS'"shorten:hem"'
p1416
I1423
sS'"jog:run"'
p1417
I1424
sS'"grant:scientist"'
p1418
I1425
sS'"class:teacher"'
p1419
I1426
sS'"famine:food"'
p1420
I1427
sS'"work:earn"'
p1421
I1428
sS'"towel:wet"'
p1422
I1429
sS'"masterpiece:artist"'
p1423
I1430
sS'"meat:beef"'
p1424
I1431
sS'"tree:ash"'
p1425
I1538
sS'"pregnant:birth"'
p1426
I1433
sS'"tile:grout"'
p1427
I1434
sS'"song:opera"'
p1428
I1541
sS'"full:moon"'
p1429
I1436
sS'"gardener:trowel"'
p1430
I1437
sS'"lock:security"'
p1431
I1438
sS'"ugly:beautiful"'
p1432
I1439
sS'"dish:soap"'
p1433
I1440
sS'"roar:lion"'
p1434
I1441
sS'"plastic:polymer"'
p1435
I1442
sS'"yell:anger"'
p1436
I1443
sS'"combustion:fire"'
p1437
I1444
sS'"baby:dance"'
p1438
I1445
sS'"soup:spoonful"'
p1439
I1446
sS'"sweater:knit"'
p1440
I1447
sS'"story:book"'
p1441
I1448
sS'"hearing:understanding"'
p1442
I1896
sS'"library:books"'
p1443
I1449
sS'"adulthood:responsibility"'
p1444
I1450
sS'"analysis:intelligent"'
p1445
I1451
sS'"parrot:bird"'
p1446
I1452
sS'"yogurt:milk"'
p1447
I1453
sS'"lust:passionate"'
p1448
I1454
sS'"animal:leaf"'
p1449
I1455
sS'"wagon:trailer"'
p1450
I1456
sS'"day:darkness"'
p1451
I958
sS'"rage:irritation"'
p1452
I1458
sS'"needle:sew"'
p1453
I962
sS'"pet:cat"'
p1454
I1460
sS'"interior:exterior"'
p1455
I870
sS'"feed:poison"'
p1456
I1461
sS'"school:learning"'
p1457
I1462
sS'"tree:bark"'
p1458
I1463
sS'"house:roof"'
p1459
I1464
sS'"actress:script"'
p1460
I1759
sS'"punch:pain"'
p1461
I1465
sS'"anthropology:people"'
p1462
I1001
sS'"runner:finish"'
p1463
I1466
sS'"guitar:pick"'
p1464
I1467
sS'"nephew:niece"'
p1465
I1468
sS'"release:captive"'
p1466
I1037
sS'"water:irrigation"'
p1467
I1470
sS'"garden:forest"'
p1468
I1471
sS'"torture:pain"'
p1469
I1472
sS'"car:fast"'
p1470
I1889
sS'"jewelry:ring"'
p1471
I1474
sS'"ocean:camel"'
p1472
I1475
sS'"apartment:lease"'
p1473
I1476
sS'"wine:beer"'
p1474
I1477
sS'"exercise:obesity"'
p1475
I1478
sS'"stallion:mare"'
p1476
I1479
sS'"encryption:data"'
p1477
I1480
sS'"hill:mountain"'
p1478
I1481
sS'"student:professor"'
p1479
I1482
sS'"thread:needle"'
p1480
I1483
sS'"groan:pain"'
p1481
I1484
sS'"addict:fix"'
p1482
I1485
sS'"school:fish"'
p1483
I1486
sS'"dish:plate"'
p1484
I1487
sS'"cassette:record"'
p1485
I1488
sS'"car:bus"'
p1486
I1489
sS'"adulthood:job"'
p1487
I1490
sS'"color:green"'
p1488
I1491
sS'"title:story"'
p1489
I1492
sS'"mediation:conflict"'
p1490
I1493
sS'"handle:turn"'
p1491
I1494
sS'"tool:hammer"'
p1492
I1495
sS'"hearing:deaf"'
p1493
I1496
sS'"retiree:job"'
p1494
I1497
sS'"puppy:dog"'
p1495
I1498
sS'"sickness:cough"'
p1496
I1499
sS'"paperwork:appointment"'
p1497
I1500
sS'"die:immortal"'
p1498
I1501
sS'"wedding:ring"'
p1499
I628
sS'"cellphone:mobile"'
p1500
I1504
sS'"mountain:hill"'
p1501
I1505
sS'"theater:play"'
p1502
I1506
sS'"chair:back"'
p1503
I1507
sS'"homeowner:home"'
p1504
I1508
sS'"hot:cool"'
p1505
I1274
sS'"employee:contract"'
p1506
I1510
sS'"gigantic:short"'
p1507
I1511
sS'"library:book"'
p1508
I1512
sS'"foot:inch"'
p1509
I1513
sS'"hurt:kill"'
p1510
I1514
sS'"picnic:blanket"'
p1511
I1515
sS'"heat:cold"'
p1512
I1516
sS'"water:ocean"'
p1513
I1308
sS'"birth:pregnant"'
p1514
I1518
sS'"fight:reconcile"'
p1515
I1519
sS'"airport:terminal"'
p1516
I1329
sS'"hedonist:pleasure"'
p1517
I1521
sS'"slap:anger"'
p1518
I1522
sS'"wig:hair"'
p1519
I1523
sS'"out:in"'
p1520
I1524
sS'"biography:life"'
p1521
I250
sS'"plot:garden"'
p1522
I1526
sS'"cinema:film"'
p1523
I1527
sS'"plain:flat"'
p1524
I1528
sS'"smile:angry"'
p1525
I1529
sS'"computer:compute"'
p1526
I1530
sS'"force:pressure"'
p1527
I1178
sS'"womb:baby"'
p1528
I1532
sS'"bottle:water"'
p1529
I1533
sS'"vessel:pot"'
p1530
I1534
sS'"mask:face"'
p1531
I1535
sS'"take:steal"'
p1532
I186
sS'"cloth:needle"'
p1533
I1537
sS'"top:bottom"'
p1534
I1432
sS'"run:fast"'
p1535
I1539
sS'"boring:fun"'
p1536
I1540
sS'"books:library"'
p1537
I1435
sS'"lecture:child"'
p1538
I1542
sS'"fill:empty"'
p1539
I1543
sS'"teach:student"'
p1540
I491
sS'"mammal:porpoise"'
p1541
I1545
sS'"kind:cruelty"'
p1542
I1546
sS'"husband:widow"'
p1543
I1547
sS'"paper:pencil"'
p1544
I1548
sS'"event:documentary"'
p1545
I524
sS'"thunder:lightning"'
p1546
I1550
sS'"sleep:insomnia"'
p1547
I1551
sS'"look:glare"'
p1548
I1552
sS'"shopper:cart"'
p1549
I1553
sS'"furniture:chair"'
p1550
I359
sS'"carpet:vacuum"'
p1551
I1555
sS'"shovel:dig"'
p1552
I1556
sS'"touch:tangible"'
p1553
I1557
sS'"hunter:prey"'
p1554
I1558
sS'"scandal:reputation"'
p1555
I1559
sS'"rest:restorative"'
p1556
I1560
sS'"man:sex"'
p1557
I1561
sS'"chant:prayer"'
p1558
I1562
sS'"sin:clergyman"'
p1559
I1563
sS'"master:craft"'
p1560
I1564
sS'"grimace:disgust"'
p1561
I1565
sS'"word:sentence"'
p1562
I1566
sS'"drink:milk"'
p1563
I1567
sS'"child:innocence"'
p1564
I1568
sS'"ocean:Indian"'
p1565
I1569
sS'"animal:raccoon"'
p1566
I1570
sS'"dead:rot"'
p1567
I1571
sS'"affection:love"'
p1568
I1572
sS'"growing:farm"'
p1569
I1573
sS'"calm:scream"'
p1570
I1574
sS'"river:bed"'
p1571
I1575
sS'"crust:pie"'
p1572
I1576
sS'"shoe:sole"'
p1573
I1577
sS'"mine:coal"'
p1574
I1578
sS'"flat:smash"'
p1575
I1579
sS'"persuade:force"'
p1576
I1580
sS'"computer:monitor"'
p1577
I1581
sS'"garage:mechanic"'
p1578
I666
sS'"laugh:hilarity"'
p1579
I1583
sS'"boat:row"'
p1580
I1584
sS'"prince:charming"'
p1581
I1585
sS'"fabric:clothes"'
p1582
I1586
sS'"evil:angelic"'
p1583
I1587
sS'"divorcee:husband"'
p1584
I1588
sS'"war:soldier"'
p1585
I1589
sS'"liar:honest"'
p1586
I257
sS'"read:know"'
p1587
I1591
sS'"tip:waitress"'
p1588
I1592
sS'"wine:alcohol"'
p1589
I1593
sS'"autumn:equinox"'
p1590
I1594
sS'"sandpaper:smooth"'
p1591
I1595
sS'"attorney:client"'
p1592
I1596
sS'"factory:car"'
p1593
I1597
sS'"sugar:flour"'
p1594
I1598
sS'"margin:page"'
p1595
I1599
sS'"exhaustion:sigh"'
p1596
I1600
sS'"bank:dollar"'
p1597
I1601
sS'"plant:flower"'
p1598
I1602
sS'"lion:roar"'
p1599
I1603
sS'"rain:dryness"'
p1600
I1604
sS'"sew:rip"'
p1601
I1605
sS'"student:dorm"'
p1602
I1606
sS'"receipt:customer"'
p1603
I1607
sS'"sleep:wake"'
p1604
I1608
sS'"harvesting:farming"'
p1605
I1609
sS'"winter:snow"'
p1606
I1610
sS'"beverage:water"'
p1607
I1611
sS'"school:education"'
p1608
I1612
sS'"hope:fear"'
p1609
I1613
sS'"serve:customer"'
p1610
I1614
sS'"floor:wall"'
p1611
I1615
sS'"destination:course"'
p1612
I1616
sS'"seedling:tree"'
p1613
I1617
sS'"desk:wood"'
p1614
I1618
sS'"oil:lamp"'
p1615
I1619
sS'"dog:bark"'
p1616
I1554
sS'"writing:publishing"'
p1617
I1620
sS'"sleep:tired"'
p1618
I1621
sS'"old:mature"'
p1619
I1622
sS'"kiss:intercourse"'
p1620
I1623
sS'"soldier:gun"'
p1621
I1624
sS'"development:gestation"'
p1622
I1625
sS'"nurse:baby"'
p1623
I1626
sS'"pool:water"'
p1624
I1627
sS'"priest:holy"'
p1625
I1283
sS'"shooter:gun"'
p1626
I1629
sS'"week:day"'
p1627
I1362
sS'"press:books"'
p1628
I1631
sS'"make:manufacture"'
p1629
I1632
sS'"student:learn"'
p1630
I1633
sS'"water:hydration"'
p1631
I1634
sS'"girlfriend:wife"'
p1632
I1635
sS'"film:camera"'
p1633
I1636
sS'"crack:sidewalk"'
p1634
I1637
sS'"thread:shirt"'
p1635
I1638
sS'"sock:clothing"'
p1636
I675
sS'"knead:baker"'
p1637
I1640
sS'"violin:cello"'
p1638
I1641
sS'"meal:food"'
p1639
I1642
sS'"drug:patient"'
p1640
I1643
sS'"object:intangible"'
p1641
I1644
sS'"tool:screwdriver"'
p1642
I117
sS'"death:population"'
p1643
I126
sS'"water:bathtub"'
p1644
I1647
sS'"fridge:food"'
p1645
I1648
sS'"yawn:boredom"'
p1646
I1918
sS'"joke:laughter"'
p1647
I1650
sS'"couch:sofa"'
p1648
I1651
sS'"hurt:cry"'
p1649
I1652
sS'"run:sweat"'
p1650
I1653
sS'"melt:density"'
p1651
I1654
sS'"beach:sand"'
p1652
I1655
sS'"river:bank"'
p1653
I1656
sS'"flee:danger"'
p1654
I1657
sS'"stream:bank"'
p1655
I1658
sS'"team:trophy"'
p1656
I1659
sS'"margin:paper"'
p1657
I1660
sS'"dream:consciousness"'
p1658
I1661
sS'"hook:wall"'
p1659
I1662
sS'"stop:go"'
p1660
I1663
sS'"criticize:praise"'
p1661
I1664
sS'"introduction:conclusion"'
p1662
I1665
sS'"book:spine"'
p1663
I1666
sS'"salad:lettuce"'
p1664
I1667
sS'"doctor:phd"'
p1665
I1668
sS'"emotional:turmoil"'
p1666
I1669
sS'"immunization:disease"'
p1667
I1670
sS'"chip:porcelain"'
p1668
I1671
sS'"raise:salary"'
p1669
I1672
sS'"doctor:thermometer"'
p1670
I1673
sS'"cold:freeze"'
p1671
I1674
sS'"heater:warmth"'
p1672
I1675
sS'"home:kitchen"'
p1673
I1676
sS'"amateur:professional"'
p1674
I1691
sS'"laughter:amusement"'
p1675
I1677
sS'"house:living"'
p1676
I286
sS'"tear:sadness"'
p1677
I1679
sS'"snake:worm"'
p1678
I1680
sS'"poor:wealth"'
p1679
I1681
sS'"wrong:good"'
p1680
I1682
sS'"transportation:bus"'
p1681
I1683
sS'"bedding:sheet"'
p1682
I1684
sS'"shoe:foot"'
p1683
I1685
sS'"eat:hungry"'
p1684
I1686
sS'"student:ignorance"'
p1685
I1687
sS'"miserable:content"'
p1686
I1688
sS'"investment:profit"'
p1687
I1689
sS'"promotion:raise"'
p1688
I1690
sS'"mogul:wealth"'
p1689
I354
sS'"clothing:shirt"'
p1690
I1692
sS'"church:worship"'
p1691
I1693
sS'"gossip:talk"'
p1692
I1694
sS'"pregnancy:food"'
p1693
I1695
sS'"ice:water"'
p1694
I373
sS'"help:cry"'
p1695
I1697
sS'"plum:prune"'
p1696
I1698
sS'"lawyer:client"'
p1697
I1699
sS'"mountain:valley"'
p1698
I390
sS'"canoe:kayak"'
p1699
I1701
sS'"bird:cardinal"'
p1700
I398
sS'"clothing:figure"'
p1701
I1703
sS'"fastball:catcher"'
p1702
I1704
sS'"office:telephone"'
p1703
I1705
sS'"education:student"'
p1704
I620
sS'"war:destruction"'
p1705
I1707
sS'"achievement:trophy"'
p1706
I1709
sS'"fin:fish"'
p1707
I1710
sS'"pop:fizzy"'
p1708
I1711
sS'"choreography:performance"'
p1709
I1712
sS'"sin:virtue"'
p1710
I1713
sS'"ballerina:grace"'
p1711
I1714
sS'"hill:ramp"'
p1712
I1715
sS'"digestion:ingestion"'
p1713
I1716
sS'"play:act"'
p1714
I1717
sS'"gun:shooter"'
p1715
I1718
sS'"equator:hemisphere"'
p1716
I1719
sS'"garment:shirt"'
p1717
I1720
sS'"break:repair"'
p1718
I1721
sS'"bouquet:flower"'
p1719
I1722
sS'"cry:hurt"'
p1720
I1723
sS'"pitching:baseball"'
p1721
I1724
sS'"hunter:rifle"'
p1722
I1725
sS'"fungicide:fungus"'
p1723
I1726
sS'"content:sad"'
p1724
I1727
sS'"read:study"'
p1725
I1728
sS'"password:access"'
p1726
I1729
sS'"agree:force"'
p1727
I1730
sS'"singer:microphone"'
p1728
I1731
sS'"laugh:happy"'
p1729
I1732
sS'"millionaire:money"'
p1730
I1733
sS'"honey:sweetness"'
p1731
I1734
sS'"motor:boat"'
p1732
I1735
sS'"cry:sad"'
p1733
I584
sS'"mediator:reconciliation"'
p1734
I1737
sS'"bed:frame"'
p1735
I1738
sS'"sweep:floor"'
p1736
I1739
sS'"dancer:applause"'
p1737
I1740
sS'"lake:fishing"'
p1738
I635
sS'"faith:reason"'
p1739
I1742
sS'"act:scene"'
p1740
I1743
sS'"troop:soldier"'
p1741
I657
sS'"king:crown"'
p1742
I1745
sS'"alcohol:wine"'
p1743
I1746
sS'"baker:bread"'
p1744
I1747
sS'"seller:customer"'
p1745
I1748
sS'"handle:mug"'
p1746
I709
sS'"smile:friendship"'
p1747
I1750
sS'"star:bright"'
p1748
I1751
sS'"sadness:despair"'
p1749
I1752
sS'"purchase:possess"'
p1750
I1753
sS'"spoon:bowl"'
p1751
I1754
sS'"sun:hot"'
p1752
I1755
sS'"wall:shelf"'
p1753
I1756
sS'"dress:seamstress"'
p1754
I1757
sS'"chef:meal"'
p1755
I1758
sS'"shine:burnish"'
p1756
I889
sS'"runner:walk"'
p1757
I1760
sS'"evil:good"'
p1758
I1761
sS'"ascetic:austerity"'
p1759
I1762
sS'"glass:pane"'
p1760
I1763
sS'"toast:bake"'
p1761
I1764
sS'"meet:athlete"'
p1762
I1765
sS'"disdain:hatred"'
p1763
I831
sS'"frustrated:patient"'
p1764
I1767
sS'"crash:noise"'
p1765
I1768
sS'"discourse:relationship"'
p1766
I1769
sS'"food:hunger"'
p1767
I1770
sS'"party:alcohol"'
p1768
I1771
sS'"sorrow:happiness"'
p1769
I1772
sS'"light:illumination"'
p1770
I1773
sS'"apple:picker"'
p1771
I1774
sS'"bar:drinking"'
p1772
I1775
sS'"shore:sea"'
p1773
I1776
sS'"shoe:sandal"'
p1774
I1777
sS'"empty:full"'
p1775
I1778
sS'"tired:exhaustion"'
p1776
I1779
sS'"frame:photograph"'
p1777
I1780
sS'"algebra:geometry"'
p1778
I1781
sS'"bath:cleanliness"'
p1779
I1782
sS'"boring:interesting"'
p1780
I1783
sS'"doctor:cure"'
p1781
I1784
sS'"uterus:baby"'
p1782
I922
sS'"option:choice"'
p1783
I1786
sS'"lock:key"'
p1784
I929
sS'"fuel:gasoline"'
p1785
I1788
sS'"therapist:client"'
p1786
I1790
sS'"seasoning:pepper"'
p1787
I1791
sS'"glue:sticky"'
p1788
I1832
sS'"lettuce:salad"'
p1789
I1792
sS'"paint:house"'
p1790
I1793
sS'"day:week"'
p1791
I1794
sS'"house:home"'
p1792
I1795
sS'"honest:liar"'
p1793
I1796
sS'"debtor:pay"'
p1794
I1797
sS'"library:reading"'
p1795
I1798
sS'"wall:room"'
p1796
I1799
sS'"awake:sleep"'
p1797
I1800
sS'"pitch:baseball"'
p1798
I1801
sS'"death:coffin"'
p1799
I1802
sS'"expert:knowledge"'
p1800
I1803
sS'"use:working"'
p1801
I1804
sS'"dance:silence"'
p1802
I1805
sS'"adult:career"'
p1803
I1806
sS'"button:shirt"'
p1804
I1807
sS'"parenthood:pride"'
p1805
I1808
sS'"resolution:problem"'
p1806
I1809
sS'"sleep:bed"'
p1807
I1810
sS'"meal:dinner"'
p1808
I1811
sS'"athlete:fit"'
p1809
I1812
sS'"winter:cold"'
p1810
I1813
sS'"wave:acknowledgement"'
p1811
I1814
sS'"priest:sin"'
p1812
I1815
sS'"smash:flat"'
p1813
I1816
sS'"right:wrong"'
p1814
I1817
sS'"yard:sidewalk"'
p1815
I65
sS'"deceit:truth"'
p1816
I138
sS'"citation:violation"'
p1817
I1820
sS'"lender:borrower"'
p1818
I1821
sS'"artwork:sculpture"'
p1819
I1502
sS'"foyer:home"'
p1820
I1822
sS'"act:play"'
p1821
I1823
sS'"splash:water"'
p1822
I1824
sS'"hair:fish"'
p1823
I1825
sS'"chisel:tool"'
p1824
I1112
sS'"knife:cut"'
p1825
I1827
sS'"atmosphere:gas"'
p1826
I1828
sS'"movement:speed"'
p1827
I1829
sS'"nice:mean"'
p1828
I636
sS'"clock:hand"'
p1829
I1831
sS'"cross:faith"'
p1830
I938
sS'"bulb:flashlight"'
p1831
I1135
sS'"climb:descend"'
p1832
I1834
sS'"antihistamine:anaphylaxis"'
p1833
I1835
sS'"church:prayer"'
p1834
I1836
sS'"letter:postscript"'
p1835
I1837
sS'"silverware:spoon"'
p1836
I1838
sS'"winner:trophy"'
p1837
I1839
sS'"baby:adult"'
p1838
I1157
sS'"couch:furniture"'
p1839
I1841
sS'"camera:photograph"'
p1840
I1842
sS'"sex:man"'
p1841
I1843
sS'"hole:circle"'
p1842
I1188
sS'"client:attorney"'
p1843
I1195
sS'"rage:happiness"'
p1844
I1198
sS'"deaf:hearing"'
p1845
I1847
sS'"thread:snip"'
p1846
I1848
sS'"talking:speech"'
p1847
I1849
sS'"body:cell"'
p1848
I1850
sS'"tent:house"'
p1849
I1851
sS'"mouse:computer"'
p1850
I1852
sS'"hostage:freedom"'
p1851
I1853
sS'"green:go"'
p1852
I1854
sS'"history:account"'
p1853
I1855
sS'"cat:dog"'
p1854
I1856
sS'"strategy:attack"'
p1855
I787
sS'"wall:ceiling"'
p1856
I1268
sS'"course:destination"'
p1857
I1859
sS'"pattern:dress"'
p1858
I1860
sS'"sand:smooth"'
p1859
I1861
sS'"face:profile"'
p1860
I1862
sS'"space:star"'
p1861
I1863
sS'"policeman:steal"'
p1862
I1864
sS'"tool:chisel"'
p1863
I1865
sS'"sigh:exhaustion"'
p1864
I1866
sS'"fire:barbeque"'
p1865
I1867
sS'"Indian:ocean"'
p1866
I622
sS'"map:city"'
p1867
I1869
sS'"buckle:strap"'
p1868
I1870
sS'"glove:hand"'
p1869
I1871
sS'"down:up"'
p1870
I1872
sS'"steel:strong"'
p1871
I1873
sS'"hunger:starvation"'
p1872
I1874
sS'"hair:brush"'
p1873
I1875
sS'"store:shopper"'
p1874
I1042
sS'"assault:injure"'
p1875
I1877
sS'"account:history"'
p1876
I1379
sS'"aquarium:fish"'
p1877
I1879
sS'"foot:toe"'
p1878
I1880
sS'"rise:sink"'
p1879
I1881
sS'"playbook:football"'
p1880
I1882
sS'"boredom:repetition"'
p1881
I1883
sS'"forest:tree"'
p1882
I1884
sS'"country:city"'
p1883
I1885
sS'"dermatology:skin"'
p1884
I1886
sS'"ring:finger"'
p1885
I1887
sS'"fire:arsonist"'
p1886
I1888
sS'"fright:scream"'
p1887
I1473
sS'"depression:joy"'
p1888
I1890
sS'"virginity:sex"'
p1889
I1891
sS'"battery:flashlight"'
p1890
I1892
sS'"film:drama"'
p1891
I1708
sS'"excitement:happy"'
p1892
I1894
sS'"dog:companionship"'
p1893
I1895
sS'"sunlight:photosynthesis"'
p1894
I1503
sS'"farming:harvesting"'
p1895
I1897
sS'"nail:screwdriver"'
p1896
I1898
sS'"insomnia:sleep"'
p1897
I1899
sS'"mammal:gorilla"'
p1898
I1900
sS'"shampoo:dandruff"'
p1899
I1901
sS'"unstable:fall"'
p1900
I1902
sS'"capture:villain"'
p1901
I1903
sS'"joy:sadness"'
p1902
I1904
sS'"clean:floor"'
p1903
I1905
sS'"good:wrong"'
p1904
I1906
sS'"capsule:medicine"'
p1905
I1907
sS'"accident:damage"'
p1906
I1908
sS'"bathroom:toilet"'
p1907
I1909
sS'"garden:flower"'
p1908
I1910
sS'"boat:motor"'
p1909
I1911
sS'"disease:medicate"'
p1910
I1964
sS'"artist:paint"'
p1911
I1912
sS'"preacher:parishioner"'
p1912
I1913
sS'"accountant:taxpayer"'
p1913
I1914
sS'"map:journey"'
p1914
I1915
sS'"dress:naked"'
p1915
I1965
sS'"price:sell"'
p1916
I1917
sS'"hat:head"'
p1917
I1649
sS'"resistant:stop"'
p1918
I1919
sS'"repetition:boredom"'
p1919
I1920
sS'"response:stimulus"'
p1920
I1921
sS'"eat:poop"'
p1921
I1922
sS'"dog:cat"'
p1922
I1923
sS'"zoo:lion"'
p1923
I1924
sS'"man:woman"'
p1924
I1925
sS'"weather:rain"'
p1925
I1926
sS'"chimpanzee:gorilla"'
p1926
I1927
sS'"miscarriage:pregnancy"'
p1927
I1928
sS'"couch:arm"'
p1928
I1929
sS'"bank:river"'
p1929
I1930
sS'"deposit:balance"'
p1930
I1931
sS'"sunrise:morning"'
p1931
I1932
sS'"night:day"'
p1932
I1933
sS'"digging:hole"'
p1933
I1934
sS'"veil:face"'
p1934
I1935
sS'"doctor:diagnosis"'
p1935
I1936
sS'"cat:animal"'
p1936
I1937
sS'"ocean:Pacific"'
p1937
I1938
sS'"rabbit:hop"'
p1938
I1939
sS'"vegetable:carrot"'
p1939
I1940
sS'"honor:hero"'
p1940
I1941
sS'"body:flesh"'
p1941
I1942
sS'"vision:blindness"'
p1942
I1969
sS'"cook:meal"'
p1943
I1944
sS'"sun:cold"'
p1944
I1945
sS'"christmas:winter"'
p1945
I1946
sS'"automobile:van"'
p1946
I1947
sS'"window:frame"'
p1947
I1400
sS'"glue:adhesion"'
p1948
I1948
sS'"gift:recipient"'
p1949
I1949
sS'"toolbox:hammer"'
p1950
I1950
sS'"furniture:desk"'
p1951
I1951
sS'"engagement:wedding"'
p1952
I1952
sS'"lamp:shade"'
p1953
I1953
sS'"cook:deliver"'
p1954
I1639
sS'"mailbox:flag"'
p1955
I1954
sS'"funeral:family"'
p1956
I1955
sS'"talking:therapy"'
p1957
I1956
sS'"unemployed:job"'
p1958
I1957
sS'"execute:criminal"'
p1959
I1958
sS'"child:adult"'
p1960
I1959
sS'"competition:athlete"'
p1961
I1960
sS'"cold:fire"'
p1962
I1961
sS'"shadow:object"'
p1963
I1962
sS'"employee:paycheck"'
p1964
I1963
sS'"preschool:kindergarten"'
p1965
I1544
sS'"draft:essay"'
p1966
I1916
sS'"bedroom:mattress"'
p1967
I1966
sS'"fidelity:devotion"'
p1968
I1967
sS'"outline:paper"'
p1969
I1968
sS'"room:wall"'
p1970
I1943
sS'"bread:wheat"'
p1971
I1970
sS'"dense:sink"'
p1972
I1971
sS'"wound:bandage"'
p1973
I1972
sS'"virtue:sin"'
p1974
I1973
s.