(dp0
S'"request:beg"'
p1
I0
sS'"feed:poison"'
p2
I1
sS'"musician:play"'
p3
I2
sS'"glare:anger"'
p4
I3
sS'"mountain:move"'
p5
I4
sS'"dog:treat"'
p6
I6
sS'"paragraph:word"'
p7
I898
sS'"cold:sneeze"'
p8
I8
sS'"buoyant:float"'
p9
I9
sS'"house:roof"'
p10
I10
sS'"red:blue"'
p11
I11
sS'"brush:paint"'
p12
I12
sS'"adolescence:puberty"'
p13
I25
sS'"pimple:skin"'
p14
I13
sS'"plan:development"'
p15
I14
sS'"family:father"'
p16
I15
sS'"bike:path"'
p17
I16
sS'"donation:charity"'
p18
I17
sS'"leaf:chlorophyll"'
p19
I18
sS'"judge:authority"'
p20
I128
sS'"knife:sword"'
p21
I20
sS'"ocean:Atlantic"'
p22
I21
sS'"reader:textbook"'
p23
I1266
sS'"disease:cure"'
p24
I23
sS'"guitar:pick"'
p25
I24
sS'"football:playbook"'
p26
I163
sS'"homework:fun"'
p27
I172
sS'"drain:tub"'
p28
I27
sS'"eat:food"'
p29
I29
sS'"garden:forest"'
p30
I30
sS'"beginning:middle"'
p31
I31
sS'"bakery:cake"'
p32
I33
sS'"almond:pecan"'
p33
I34
sS'"movie:comedy"'
p34
I154
sS'"lion:zoo"'
p35
I36
sS'"drive:arrive"'
p36
I229
sS'"building:floor"'
p37
I38
sS'"love:adore"'
p38
I39
sS'"party:cake"'
p39
I40
sS'"professor:intellectual"'
p40
I41
sS'"computer:chip"'
p41
I42
sS'"citizen:society"'
p42
I43
sS'"apartment:lease"'
p43
I45
sS'"geology:earth"'
p44
I46
sS'"heavy:press"'
p45
I48
sS'"cave:entrance"'
p46
I49
sS'"flower:daisy"'
p47
I50
sS'"flimsy:paper"'
p48
I51
sS'"man:tall"'
p49
I761
sS'"curtain:window"'
p50
I53
sS'"exercise:obesity"'
p51
I54
sS'"church:nave"'
p52
I55
sS'"idea:invention"'
p53
I56
sS'"food:nourishment"'
p54
I57
sS'"adolescence:acne"'
p55
I58
sS'"park:playing"'
p56
I59
sS'"kiss:intercourse"'
p57
I60
sS'"encryption:data"'
p58
I61
sS'"jump:high"'
p59
I62
sS'"hill:mountain"'
p60
I63
sS'"foil:plan"'
p61
I64
sS'"black:white"'
p62
I65
sS'"hair:wig"'
p63
I890
sS'"church:hymnal"'
p64
I67
sS'"employee:check"'
p65
I68
sS'"artwork:replica"'
p66
I69
sS'"pen:pencil"'
p67
I5
sS'"desire:advertisement"'
p68
I71
sS'"baptism:priest"'
p69
I72
sS'"flower:stem"'
p70
I306
sS'"hill:top"'
p71
I75
sS'"furniture:chair"'
p72
I76
sS'"addict:fix"'
p73
I78
sS'"poor:money"'
p74
I79
sS'"door:inside"'
p75
I80
sS'"dish:plate"'
p76
I81
sS'"lion:tiger"'
p77
I82
sS'"church:sanctuary"'
p78
I83
sS'"flower:tree"'
p79
I84
sS'"athlete:competition"'
p80
I85
sS'"mineral:mica"'
p81
I86
sS'"glass:vase"'
p82
I87
sS'"needle:cloth"'
p83
I855
sS'"electricity:television"'
p84
I363
sS'"prisoner:punishment"'
p85
I88
sS'"battery:laptop"'
p86
I89
sS'"cassette:record"'
p87
I90
sS'"blue:red"'
p88
I91
sS'"adulthood:job"'
p89
I92
sS'"happy:smile"'
p90
I93
sS'"closet:clothing"'
p91
I94
sS'"excitement:happy"'
p92
I672
sS'"mediation:conflict"'
p93
I97
sS'"rim:cup"'
p94
I98
sS'"automobile:transportation"'
p95
I99
sS'"hermit:association"'
p96
I100
sS'"master:craft"'
p97
I287
sS'"hearing:deaf"'
p98
I101
sS'"mistake:regret"'
p99
I921
sS'"hand:glove"'
p100
I103
sS'"retiree:job"'
p101
I104
sS'"give:receiver"'
p102
I105
sS'"puppy:dog"'
p103
I106
sS'"lawn:grass"'
p104
I107
sS'"invalid:illness"'
p105
I108
sS'"advertisement:desire"'
p106
I109
sS'"bark:cat"'
p107
I110
sS'"blow:pain"'
p108
I111
sS'"elder:youth"'
p109
I112
sS'"child:work"'
p110
I113
sS'"barber:scissors"'
p111
I114
sS'"groom:horse"'
p112
I1208
sS'"punch:pain"'
p113
I47
sS'"certificate:teacher"'
p114
I116
sS'"paperwork:appointment"'
p115
I66
sS'"neck:scarf"'
p116
I118
sS'"fish:salmon"'
p117
I120
sS'"cough:illness"'
p118
I121
sS'"hand:finger"'
p119
I122
sS'"bank:money"'
p120
I124
sS'"elderly:youth"'
p121
I126
sS'"glue:adhesion"'
p122
I127
sS'"mountain:hill"'
p123
I845
sS'"rich:poverty"'
p124
I1190
sS'"prescription:patient"'
p125
I130
sS'"raise:low"'
p126
I800
sS'"male:female"'
p127
I796
sS'"head:hat"'
p128
I1144
sS'"chair:back"'
p129
I134
sS'"image:photograph"'
p130
I135
sS'"dirt:cleanliness"'
p131
I136
sS'"millionaire:riches"'
p132
I137
sS'"inspire:follower"'
p133
I138
sS'"caterpillar:butterfly"'
p134
I139
sS'"cleanliness:dirt"'
p135
I140
sS'"hot:cool"'
p136
I141
sS'"fungicide:fungus"'
p137
I699
sS'"employee:contract"'
p138
I143
sS'"ancient:modern"'
p139
I144
sS'"gigantic:short"'
p140
I145
sS'"nod:agreement"'
p141
I1146
sS'"library:book"'
p142
I146
sS'"border:mexico"'
p143
I147
sS'"firework:chemical"'
p144
I148
sS'"jog:run"'
p145
I1226
sS'"pool:swimming"'
p146
I149
sS'"content:sad"'
p147
I150
sS'"circus:clown"'
p148
I151
sS'"dark:light"'
p149
I153
sS'"novice:experience"'
p150
I182
sS'"baby:bald"'
p151
I155
sS'"fawn:deer"'
p152
I156
sS'"picnic:blanket"'
p153
I724
sS'"heat:cold"'
p154
I158
sS'"childhood:adult"'
p155
I159
sS'"birth:pregnant"'
p156
I160
sS'"charity:donate"'
p157
I161
sS'"birthday:present"'
p158
I162
sS'"nephew:niece"'
p159
I1083
sS'"chastity:nun"'
p160
I165
sS'"resolution:problem"'
p161
I1221
sS'"basement:victim"'
p162
I167
sS'"mattress:bedroom"'
p163
I168
sS'"fence:screen"'
p164
I169
sS'"dog:cat"'
p165
I335
sS'"airport:terminal"'
p166
I170
sS'"hedonist:pleasure"'
p167
I171
sS'"partner:dancer"'
p168
I688
sS'"bank:loans"'
p169
I174
sS'"release:captive"'
p170
I175
sS'"day:hour"'
p171
I177
sS'"flock:bird"'
p172
I178
sS'"administrator:power"'
p173
I1062
sS'"out:in"'
p174
I180
sS'"health:disease"'
p175
I181
sS'"headstone:marble"'
p176
I183
sS'"arrest:trial"'
p177
I184
sS'"novel:foreword"'
p178
I185
sS'"murderer:evil"'
p179
I186
sS'"program:code"'
p180
I187
sS'"forgive:insult"'
p181
I188
sS'"cinema:film"'
p182
I189
sS'"outline:paper"'
p183
I1299
sS'"car:drive"'
p184
I190
sS'"meal:dinner"'
p185
I191
sS'"ocean:sea"'
p186
I192
sS'"adulthood:work"'
p187
I193
sS'"mother:child"'
p188
I194
sS'"athlete:fit"'
p189
I915
sS'"computer:screen"'
p190
I195
sS'"child:nanny"'
p191
I196
sS'"adulthood:independence"'
p192
I197
sS'"force:pressure"'
p193
I198
sS'"home:tree"'
p194
I199
sS'"bread:flour"'
p195
I860
sS'"eating:restaurant"'
p196
I591
sS'"joy:skip"'
p197
I201
sS'"bottle:water"'
p198
I202
sS'"pensioner:work"'
p199
I203
sS'"laugh:amusement"'
p200
I312
sS'"mask:face"'
p201
I360
sS'"bedroom:sleeping"'
p202
I206
sS'"cloth:needle"'
p203
I207
sS'"morning:sunrise"'
p204
I1009
sS'"heal:hurt"'
p205
I132
sS'"books:library"'
p206
I210
sS'"lecture:child"'
p207
I211
sS'"rest:exhaustion"'
p208
I212
sS'"fuck:rape"'
p209
I213
sS'"meteorology:weather"'
p210
I789
sS'"pencil:write"'
p211
I612
sS'"fill:empty"'
p212
I216
sS'"lock:gate"'
p213
I259
sS'"light:bright"'
p214
I218
sS'"boat:marina"'
p215
I1137
sS'"kind:cruelty"'
p216
I219
sS'"desert:evergreen"'
p217
I220
sS'"husband:widow"'
p218
I221
sS'"introduction:speech"'
p219
I222
sS'"medal:hero"'
p220
I223
sS'"event:documentary"'
p221
I95
sS'"crime:evidence"'
p222
I225
sS'"fire:warmth"'
p223
I226
sS'"day:evening"'
p224
I227
sS'"college:degree"'
p225
I228
sS'"patient:health"'
p226
I240
sS'"bracelet:wrist"'
p227
I230
sS'"chef:spatula"'
p228
I231
sS'"dog:bark"'
p229
I232
sS'"chat:gossip"'
p230
I233
sS'"carpet:vacuum"'
p231
I234
sS'"fire:flame"'
p232
I235
sS'"priest:sin"'
p233
I237
sS'"cook:food"'
p234
I238
sS'"dog:bitch"'
p235
I239
sS'"hunter:prey"'
p236
I241
sS'"cry:sad"'
p237
I243
sS'"discard:litter"'
p238
I244
sS'"regret:mistake"'
p239
I245
sS'"rest:restorative"'
p240
I246
sS'"man:sex"'
p241
I166
sS'"insult:provocation"'
p242
I248
sS'"chant:prayer"'
p243
I249
sS'"herd:cow"'
p244
I250
sS'"disease:medicine"'
p245
I251
sS'"grow:tree"'
p246
I252
sS'"harvest:crop"'
p247
I253
sS'"ocean:camel"'
p248
I264
sS'"child:lecture"'
p249
I255
sS'"concrete:cement"'
p250
I256
sS'"golden:gleam"'
p251
I257
sS'"freedom:hostage"'
p252
I258
sS'"cold:frozen"'
p253
I260
sS'"juice:fruit"'
p254
I261
sS'"crack:mirror"'
p255
I247
sS'"grimace:disgust"'
p256
I263
sS'"refrigerator:food"'
p257
I254
sS'"instrument:violin"'
p258
I131
sS'"broken:repair"'
p259
I265
sS'"handle:mug"'
p260
I266
sS'"perform:audience"'
p261
I267
sS'"cat:fur"'
p262
I268
sS'"biology:life"'
p263
I269
sS'"cup:lid"'
p264
I270
sS'"child:innocence"'
p265
I271
sS'"morning:breakfast"'
p266
I272
sS'"fracture:bone"'
p267
I273
sS'"animal:raccoon"'
p268
I274
sS'"baby:cry"'
p269
I275
sS'"plastic:polymer"'
p270
I276
sS'"dead:rot"'
p271
I277
sS'"beautiful:plain"'
p272
I278
sS'"affection:love"'
p273
I279
sS'"draft:essay"'
p274
I280
sS'"growing:farm"'
p275
I281
sS'"reach:hold"'
p276
I282
sS'"lead:member"'
p277
I142
sS'"hood:hair"'
p278
I284
sS'"coupe:sedan"'
p279
I285
sS'"crust:pie"'
p280
I286
sS'"follower:inspire"'
p281
I491
sS'"object:tangible"'
p282
I288
sS'"drinking:bar"'
p283
I289
sS'"kitchen:food"'
p284
I290
sS'"build:destroy"'
p285
I1148
sS'"letter:word"'
p286
I291
sS'"pay:debtor"'
p287
I292
sS'"laugh:happy"'
p288
I293
sS'"flock:sheep"'
p289
I295
sS'"elderly:retirement"'
p290
I296
sS'"infant:toddler"'
p291
I297
sS'"cough:sickness"'
p292
I1139
sS'"giggle:laugh"'
p293
I298
sS'"life:biography"'
p294
I555
sS'"persuade:force"'
p295
I299
sS'"clean:floor"'
p296
I300
sS'"computer:monitor"'
p297
I301
sS'"disagreement:anger"'
p298
I302
sS'"check:employee"'
p299
I303
sS'"animal:leaf"'
p300
I1230
sS'"pillow:cushion"'
p301
I304
sS'"debate:argue"'
p302
I305
sS'"bed:frame"'
p303
I730
sS'"boat:row"'
p304
I307
sS'"cordless:phone"'
p305
I308
sS'"battery:phone"'
p306
I309
sS'"climb:descend"'
p307
I960
sS'"fight:win"'
p308
I669
sS'"doctor:thermometer"'
p309
I310
sS'"fabric:clothes"'
p310
I311
sS'"game:referee"'
p311
I313
sS'"evil:angelic"'
p312
I314
sS'"animal:dog"'
p313
I315
sS'"diamond:shiny"'
p314
I316
sS'"divorcee:husband"'
p315
I317
sS'"old:youth"'
p316
I318
sS'"investment:profit"'
p317
I319
sS'"actor:oscar"'
p318
I320
sS'"inflation:price"'
p319
I321
sS'"commercial:viewer"'
p320
I322
sS'"protect:vulnerable"'
p321
I323
sS'"boy:girl"'
p322
I324
sS'"pride:embarrassment"'
p323
I325
sS'"fire:hot"'
p324
I326
sS'"help:helpless"'
p325
I327
sS'"read:know"'
p326
I328
sS'"paint:canvas"'
p327
I330
sS'"medicine:illness"'
p328
I331
sS'"birthday:party"'
p329
I332
sS'"keyboard:calculator"'
p330
I333
sS'"inside:outside"'
p331
I334
sS'"homeless:poor"'
p332
I705
sS'"house:home"'
p333
I336
sS'"prayer:reverence"'
p334
I337
sS'"picker:apple"'
p335
I338
sS'"phone:cordless"'
p336
I242
sS'"autumn:equinox"'
p337
I340
sS'"dynamite:explode"'
p338
I341
sS'"pour:shower"'
p339
I342
sS'"foyer:home"'
p340
I941
sS'"attorney:client"'
p341
I344
sS'"prom:dress"'
p342
I129
sS'"preview:movie"'
p343
I173
sS'"desert:water"'
p344
I347
sS'"chair:sofa"'
p345
I1014
sS'"movie:preview"'
p346
I348
sS'"event:photograph"'
p347
I349
sS'"class:student"'
p348
I350
sS'"educator:teach"'
p349
I351
sS'"pimple:face"'
p350
I1215
sS'"necklace:neck"'
p351
I353
sS'"computer:laptop"'
p352
I355
sS'"design:shopper"'
p353
I356
sS'"burnish:shine"'
p354
I357
sS'"exhaustion:sigh"'
p355
I358
sS'"bathroom:toilet"'
p356
I359
sS'"bank:dollar"'
p357
I361
sS'"garden:flower"'
p358
I997
sS'"plant:flower"'
p359
I364
sS'"finger:hand"'
p360
I365
sS'"phone:call"'
p361
I366
sS'"butcher:knife"'
p362
I367
sS'"dough:bread"'
p363
I368
sS'"promotion:raise"'
p364
I786
sS'"adult:childhood"'
p365
I369
sS'"conductor:baton"'
p366
I370
sS'"exhaustion:rest"'
p367
I371
sS'"discourse:relationship"'
p368
I372
sS'"lake:fishing"'
p369
I373
sS'"intellectual:professor"'
p370
I374
sS'"noise:music"'
p371
I375
sS'"cook:stove"'
p372
I376
sS'"drive:golf"'
p373
I377
sS'"lease:apartment"'
p374
I378
sS'"lavatory:sink"'
p375
I379
sS'"duck:goose"'
p376
I380
sS'"deceit:truth"'
p377
I37
sS'"letter:postscript"'
p378
I381
sS'"bandage:sling"'
p379
I383
sS'"hurt:victim"'
p380
I1095
sS'"pessimist:hope"'
p381
I385
sS'"man:boyhood"'
p382
I937
sS'"furniture:couch"'
p383
I478
sS'"bar:cocktail"'
p384
I387
sS'"education:expertise"'
p385
I388
sS'"mine:coal"'
p386
I489
sS'"lipstick:red"'
p387
I390
sS'"harvesting:farming"'
p388
I391
sS'"ice:melt"'
p389
I393
sS'"money:poverty"'
p390
I394
sS'"bleach:stain"'
p391
I395
sS'"farm:tractor"'
p392
I396
sS'"beverage:water"'
p393
I397
sS'"box:cardboard"'
p394
I399
sS'"atheist:worship"'
p395
I1168
sS'"lie:whereabouts"'
p396
I1108
sS'"overweight:healthy"'
p397
I1296
sS'"hearing:understanding"'
p398
I403
sS'"floor:wall"'
p399
I404
sS'"high:down"'
p400
I1131
sS'"marriage:husband"'
p401
I733
sS'"kitchen:house"'
p402
I329
sS'"accident:damage"'
p403
I409
sS'"destination:course"'
p404
I410
sS'"fire:burn"'
p405
I411
sS'"accountant:taxpayer"'
p406
I412
sS'"love:eternal"'
p407
I152
sS'"desk:wood"'
p408
I414
sS'"pregnancy:birth"'
p409
I416
sS'"gossip:chat"'
p410
I417
sS'"acid:base"'
p411
I418
sS'"cocktail:alcohol"'
p412
I419
sS'"father:mother"'
p413
I420
sS'"mechanic:garage"'
p414
I421
sS'"oil:lamp"'
p415
I423
sS'"middle:beginning"'
p416
I200
sS'"fish:swim"'
p417
I426
sS'"doctor:stethoscope"'
p418
I714
sS'"preach:disciple"'
p419
I427
sS'"question:answer"'
p420
I725
sS'"repair:damaged"'
p421
I429
sS'"freezing:warm"'
p422
I431
sS'"anger:slap"'
p423
I432
sS'"groan:pain"'
p424
I433
sS'"hot:burn"'
p425
I434
sS'"clothing:thread"'
p426
I435
sS'"adoptee:certificate"'
p427
I436
sS'"butterfly:cocoon"'
p428
I438
sS'"hammer:pound"'
p429
I439
sS'"fish:fin"'
p430
I440
sS'"pizza:cheesy"'
p431
I441
sS'"policeman:steal"'
p432
I442
sS'"fairy:wand"'
p433
I443
sS'"armistice:peace"'
p434
I444
sS'"in:out"'
p435
I445
sS'"anthropology:people"'
p436
I446
sS'"office:working"'
p437
I74
sS'"development:gestation"'
p438
I449
sS'"book:page"'
p439
I450
sS'"building:lobby"'
p440
I451
sS'"antihistamine:anaphylaxis"'
p441
I452
sS'"ocean:Indian"'
p442
I453
sS'"jog:exercise"'
p443
I454
sS'"injury:pain"'
p444
I455
sS'"light:lamp"'
p445
I457
sS'"close:door"'
p446
I925
sS'"clothes:body"'
p447
I459
sS'"fight:war"'
p448
I460
sS'"lobby:building"'
p449
I461
sS'"dinner:eating"'
p450
I462
sS'"champion:trophy"'
p451
I463
sS'"full:empty"'
p452
I1015
sS'"coach:player"'
p453
I465
sS'"frog:tail"'
p454
I466
sS'"press:books"'
p455
I467
sS'"daisy:flower"'
p456
I909
sS'"honesty:deception"'
p457
I469
sS'"bedtime:story"'
p458
I470
sS'"religion:disciple"'
p459
I471
sS'"girlfriend:wife"'
p460
I472
sS'"film:camera"'
p461
I751
sS'"hug:comfort"'
p462
I448
sS'"kind:loving"'
p463
I476
sS'"crack:sidewalk"'
p464
I477
sS'"bookcase:shelf"'
p465
I752
sS'"cook:deliver"'
p466
I480
sS'"knead:baker"'
p467
I481
sS'"garage:mechanic"'
p468
I482
sS'"code:program"'
p469
I483
sS'"reach:touch"'
p470
I484
sS'"meal:food"'
p471
I485
sS'"activity:boredom"'
p472
I204
sS'"food:eat"'
p473
I545
sS'"drug:patient"'
p474
I487
sS'"doctor:hurt"'
p475
I490
sS'"nice:evil"'
p476
I712
sS'"pride:lion"'
p477
I492
sS'"movie:scene"'
p478
I493
sS'"old:young"'
p479
I494
sS'"child:mother"'
p480
I495
sS'"emptiness:fill"'
p481
I497
sS'"object:intangible"'
p482
I498
sS'"kitchen:pot"'
p483
I499
sS'"blanket:soft"'
p484
I500
sS'"photograph:camera"'
p485
I501
sS'"fiction:poetry"'
p486
I528
sS'"explosion:damage"'
p487
I503
sS'"death:population"'
p488
I504
sS'"genealogy:family"'
p489
I354
sS'"margin:paper"'
p490
I507
sS'"fridge:food"'
p491
I508
sS'"landscape:photo"'
p492
I509
sS'"hunter:game"'
p493
I384
sS'"joke:laughter"'
p494
I511
sS'"blindness:vision"'
p495
I513
sS'"hurt:cry"'
p496
I514
sS'"dead:breathe"'
p497
I515
sS'"compliment:flatter"'
p498
I516
sS'"hotel:lobby"'
p499
I517
sS'"melt:density"'
p500
I518
sS'"formula:equation"'
p501
I519
sS'"betray:confidant"'
p502
I520
sS'"art:sculpture"'
p503
I521
sS'"darken:color"'
p504
I522
sS'"divorcee:marriage"'
p505
I523
sS'"past:future"'
p506
I524
sS'"flee:danger"'
p507
I525
sS'"fastball:catcher"'
p508
I644
sS'"image:sketch"'
p509
I526
sS'"fun:boring"'
p510
I527
sS'"fire:heat"'
p511
I502
sS'"lay:sleep"'
p512
I529
sS'"dream:consciousness"'
p513
I530
sS'"hook:wall"'
p514
I531
sS'"medicine:recovery"'
p515
I533
sS'"heat:temperature"'
p516
I536
sS'"coward:fear"'
p517
I537
sS'"harm:safety"'
p518
I538
sS'"digging:hole"'
p519
I797
sS'"authority:ignorance"'
p520
I539
sS'"horn:mouthpiece"'
p521
I540
sS'"introduction:conclusion"'
p522
I541
sS'"honor:hero"'
p523
I1250
sS'"peace:armistice"'
p524
I543
sS'"deficiency:health"'
p525
I544
sS'"kind:rude"'
p526
I398
sS'"order:soldier"'
p527
I546
sS'"refrigerator:appliance"'
p528
I542
sS'"bag:contain"'
p529
I548
sS'"alive:dead"'
p530
I549
sS'"bunch:grape"'
p531
I262
sS'"poverty:riches"'
p532
I550
sS'"monitor:computer"'
p533
I551
sS'"book:spine"'
p534
I552
sS'"book:summary"'
p535
I553
sS'"entrepreneur:wealth"'
p536
I554
sS'"object:shadow"'
p537
I506
sS'"low:up"'
p538
I556
sS'"farmer:food"'
p539
I557
sS'"cruel:kindness"'
p540
I558
sS'"doctor:phd"'
p541
I559
sS'"repair:break"'
p542
I560
sS'"immunization:disease"'
p543
I561
sS'"chip:porcelain"'
p544
I562
sS'"fork:utensil"'
p545
I563
sS'"nanny:child"'
p546
I564
sS'"dairy:milk"'
p547
I565
sS'"oven:cook"'
p548
I488
sS'"meat:beef"'
p549
I1275
sS'"corpse:life"'
p550
I567
sS'"blackboard:chalk"'
p551
I568
sS'"exercise:fatigue"'
p552
I569
sS'"hungry:fed"'
p553
I745
sS'"bulb:light"'
p554
I571
sS'"cold:freeze"'
p555
I572
sS'"heater:warmth"'
p556
I573
sS'"lubricant:oil"'
p557
I575
sS'"pack:wolf"'
p558
I576
sS'"funeral:corpse"'
p559
I577
sS'"food:hunger"'
p560
I966
sS'"cold:warm"'
p561
I578
sS'"car:bus"'
p562
I579
sS'"book:cover"'
p563
I580
sS'"house:living"'
p564
I581
sS'"burn:hot"'
p565
I582
sS'"pillow:soft"'
p566
I583
sS'"good:bad"'
p567
I584
sS'"marina:boat"'
p568
I585
sS'"mill:flour"'
p569
I815
sS'"emotion:song"'
p570
I587
sS'"access:password"'
p571
I588
sS'"desert:flood"'
p572
I589
sS'"murderer:help"'
p573
I590
sS'"map:topography"'
p574
I115
sS'"bedding:sheet"'
p575
I592
sS'"fridge:appliance"'
p576
I593
sS'"immortal:die"'
p577
I594
sS'"christmas:winter"'
p578
I1254
sS'"headache:stress"'
p579
I595
sS'"pharmacy:medicine"'
p580
I596
sS'"color:green"'
p581
I597
sS'"pacifist:peace"'
p582
I598
sS'"agenda:meeting"'
p583
I599
sS'"ignorance:learning"'
p584
I600
sS'"eat:hungry"'
p585
I601
sS'"garden:plot"'
p586
I547
sS'"eat:fork"'
p587
I603
sS'"pain:treatment"'
p588
I604
sS'"concert:musician"'
p589
I605
sS'"miserable:content"'
p590
I606
sS'"raise:child"'
p591
I607
sS'"forest:sand"'
p592
I608
sS'"disease:sickness"'
p593
I609
sS'"peace:war"'
p594
I610
sS'"church:pew"'
p595
I611
sS'"baker:knead"'
p596
I613
sS'"driver:car"'
p597
I614
sS'"prisoner:freedom"'
p598
I615
sS'"mogul:wealth"'
p599
I616
sS'"leash:dog"'
p600
I52
sS'"church:worship"'
p601
I994
sS'"moat:castle"'
p602
I619
sS'"fizzy:pop"'
p603
I236
sS'"egg:yolk"'
p604
I621
sS'"coach:athlete"'
p605
I623
sS'"gossip:talk"'
p606
I624
sS'"pregnancy:food"'
p607
I382
sS'"avarice:scheme"'
p608
I626
sS'"horse:pony"'
p609
I627
sS'"angry:smile"'
p610
I628
sS'"cold:fire"'
p611
I629
sS'"frown:anger"'
p612
I630
sS'"lawyer:client"'
p613
I631
sS'"pillow:mattress"'
p614
I632
sS'"preschool:kindergarten"'
p615
I633
sS'"mountain:valley"'
p616
I634
sS'"canoe:kayak"'
p617
I635
sS'"knife:butcher"'
p618
I1206
sS'"piece:bunch"'
p619
I637
sS'"people:city"'
p620
I133
sS'"danger:flee"'
p621
I639
sS'"bird:cardinal"'
p622
I640
sS'"fence:hedge"'
p623
I849
sS'"hit:injury"'
p624
I641
sS'"airplane:cockpit"'
p625
I642
sS'"bottle:baby"'
p626
I773
sS'"restaurant:chef"'
p627
I415
sS'"light:dim"'
p628
I392
sS'"office:telephone"'
p629
I645
sS'"equation:solution"'
p630
I176
sS'"fat:thin"'
p631
I647
sS'"hospital:patient"'
p632
I648
sS'"earplug:ear"'
p633
I1236
sS'"drought:water"'
p634
I649
sS'"fish:trout"'
p635
I1159
sS'"manager:employee"'
p636
I651
sS'"achievement:trophy"'
p637
I652
sS'"boss:employee"'
p638
I653
sS'"fin:fish"'
p639
I655
sS'"map:route"'
p640
I656
sS'"choreography:performance"'
p641
I657
sS'"cooking:eating"'
p642
I658
sS'"desk:button"'
p643
I659
sS'"restaurant:food"'
p644
I660
sS'"loom:cloth"'
p645
I661
sS'"day:dream"'
p646
I662
sS'"ballerina:grace"'
p647
I663
sS'"costume:gender"'
p648
I664
sS'"painter:portrait"'
p649
I1242
sS'"branch:tree"'
p650
I666
sS'"hangar:airplane"'
p651
I667
sS'"novel:autobiography"'
p652
I734
sS'"fidelity:devotion"'
p653
I217
sS'"house:room"'
p654
I566
sS'"diploma:graduate"'
p655
I574
sS'"digestion:ingestion"'
p656
I671
sS'"acknowledgement:signature"'
p657
I674
sS'"obey:protest"'
p658
I675
sS'"play:act"'
p659
I676
sS'"leg:body"'
p660
I677
sS'"gun:shooter"'
p661
I678
sS'"complain:whine"'
p662
I679
sS'"acceleration:speed"'
p663
I834
sS'"equator:hemisphere"'
p664
I680
sS'"knowledge:ignorance"'
p665
I681
sS'"girl:person"'
p666
I682
sS'"garment:shirt"'
p667
I26
sS'"paper:pen"'
p668
I684
sS'"bouquet:flower"'
p669
I685
sS'"cure:disease"'
p670
I686
sS'"ring:peal"'
p671
I458
sS'"paper:parchment"'
p672
I1001
sS'"beer:wine"'
p673
I413
sS'"hard:simple"'
p674
I689
sS'"equation:formula"'
p675
I690
sS'"hood:head"'
p676
I691
sS'"photo:object"'
p677
I692
sS'"arsonist:fire"'
p678
I693
sS'"cry:hurt"'
p679
I694
sS'"handle:turn"'
p680
I695
sS'"pitching:baseball"'
p681
I696
sS'"die:immortal"'
p682
I697
sS'"confidant:betray"'
p683
I698
sS'"preparation:disaster"'
p684
I1151
sS'"crack:glass"'
p685
I980
sS'"apple:red"'
p686
I700
sS'"read:study"'
p687
I437
sS'"pencil:pen"'
p688
I702
sS'"prince:charming"'
p689
I703
sS'"password:access"'
p690
I704
sS'"money:dime"'
p691
I534
sS'"hotel:bed"'
p692
I706
sS'"restaurant:eating"'
p693
I707
sS'"biography:life"'
p694
I708
sS'"lamp:sun"'
p695
I709
sS'"laugh:funny"'
p696
I710
sS'"raise:salary"'
p697
I715
sS'"millionaire:money"'
p698
I713
sS'"pie:crust"'
p699
I654
sS'"motor:boat"'
p700
I716
sS'"associate:partner"'
p701
I717
sS'"girl:woman"'
p702
I718
sS'"cloud:rain"'
p703
I719
sS'"mediator:reconciliation"'
p704
I720
sS'"pastor:preach"'
p705
I721
sS'"heat:fire"'
p706
I339
sS'"electricity:stove"'
p707
I723
sS'"fruit:apple"'
p708
I726
sS'"hot:cold"'
p709
I294
sS'"boredom:fun"'
p710
I728
sS'"millionaire:wealth"'
p711
I729
sS'"hat:hair"'
p712
I665
sS'"liar:honest"'
p713
I731
sS'"dancer:applause"'
p714
I732
sS'"reader:read"'
p715
I407
sS'"fracture:heal"'
p716
I157
sS'"needle:sew"'
p717
I735
sS'"office:computer"'
p718
I736
sS'"flour:sugar"'
p719
I737
sS'"prune:date"'
p720
I738
sS'"dog:tail"'
p721
I739
sS'"frown:distaste"'
p722
I386
sS'"faith:reason"'
p723
I741
sS'"act:scene"'
p724
I742
sS'"athlete:championship"'
p725
I743
sS'"hydrogen:water"'
p726
I744
sS'"draft:development"'
p727
I746
sS'"earth:geology"'
p728
I747
sS'"brick:concrete"'
p729
I748
sS'"alacrity:reluctant"'
p730
I749
sS'"peeling:cooking"'
p731
I468
sS'"poison:illness"'
p732
I473
sS'"king:crown"'
p733
I535
sS'"pregnant:birth"'
p734
I687
sS'"model:architecture"'
p735
I754
sS'"alcohol:wine"'
p736
I755
sS'"invalid:sickness"'
p737
I756
sS'"help:cruel"'
p738
I758
sS'"collar:dog"'
p739
I759
sS'"dress:naked"'
p740
I760
sS'"plastic:recycled"'
p741
I762
sS'"knife:stab"'
p742
I763
sS'"grace:ballerina"'
p743
I764
sS'"record:cassette"'
p744
I765
sS'"laugh:happiness"'
p745
I766
sS'"drive:car"'
p746
I625
sS'"code:message"'
p747
I767
sS'"nurse:baby"'
p748
I346
sS'"railing:stair"'
p749
I769
sS'"class:teacher"'
p750
I1232
sS'"amateur:professional"'
p751
I771
sS'"margin:page"'
p752
I772
sS'"lamb:sheep"'
p753
I1267
sS'"decline:health"'
p754
I774
sS'"letter:stamp"'
p755
I1003
sS'"novice:inexperience"'
p756
I7
sS'"meteorology:atmosphere"'
p757
I775
sS'"farm:growing"'
p758
I776
sS'"leukemia:blood"'
p759
I777
sS'"happy:cry"'
p760
I778
sS'"mall:shopping"'
p761
I779
sS'"hunter:rifle"'
p762
I362
sS'"laughter:amusement"'
p763
I781
sS'"night:light"'
p764
I782
sS'"image:picture"'
p765
I783
sS'"dress:seamstress"'
p766
I727
sS'"chef:meal"'
p767
I785
sS'"father:son"'
p768
I19
sS'"hospital:wing"'
p769
I787
sS'"carton:milk"'
p770
I788
sS'"plain:beautiful"'
p771
I119
sS'"farmer:harvest"'
p772
I790
sS'"pregnancy:development"'
p773
I1186
sS'"dog:leash"'
p774
I792
sS'"paper:flimsy"'
p775
I793
sS'"cat:dog"'
p776
I794
sS'"payment:debtor"'
p777
I795
sS'"funeral:mourner"'
p778
I798
sS'"fast:run"'
p779
I791
sS'"read:learn"'
p780
I839
sS'"airplane:hangar"'
p781
I1008
sS'"evil:good"'
p782
I799
sS'"boxer:fight"'
p783
I1138
sS'"ascetic:austerity"'
p784
I801
sS'"addict:use"'
p785
I802
sS'"hospital:bed"'
p786
I803
sS'"euphoria:heroin"'
p787
I804
sS'"city:block"'
p788
I805
sS'"go:come"'
p789
I806
sS'"bone:brittle"'
p790
I807
sS'"receipt:customer"'
p791
I808
sS'"poor:wealth"'
p792
I809
sS'"glass:pane"'
p793
I812
sS'"home:kitchen"'
p794
I810
sS'"good:evil"'
p795
I814
sS'"meet:athlete"'
p796
I816
sS'"disdain:hatred"'
p797
I817
sS'"repair:broken"'
p798
I818
sS'"match:wood"'
p799
I819
sS'"frustrated:patient"'
p800
I820
sS'"fire:cold"'
p801
I821
sS'"clerk:customer"'
p802
I822
sS'"chef:knife"'
p803
I823
sS'"dryness:rain"'
p804
I824
sS'"plan:lesson"'
p805
I32
sS'"exercise:healthy"'
p806
I826
sS'"drink:milk"'
p807
I827
sS'"orator:audience"'
p808
I722
sS'"edge:cliff"'
p809
I829
sS'"angelic:evil"'
p810
I830
sS'"party:alcohol"'
p811
I831
sS'"birthday:celebration"'
p812
I832
sS'"faith:believe"'
p813
I833
sS'"light:illumination"'
p814
I496
sS'"adult:job"'
p815
I835
sS'"kitchen:cooking"'
p816
I586
sS'"floor:sweep"'
p817
I838
sS'"glass:shattered"'
p818
I875
sS'"fright:scream"'
p819
I35
sS'"child:youth"'
p820
I840
sS'"apple:picker"'
p821
I841
sS'"learning:study"'
p822
I842
sS'"bar:drinking"'
p823
I843
sS'"cushion:chair"'
p824
I1323
sS'"empty:full"'
p825
I846
sS'"pattern:dress"'
p826
I847
sS'"degree:graduate"'
p827
I848
sS'"frame:photograph"'
p828
I1127
sS'"algebra:geometry"'
p829
I850
sS'"contract:deal"'
p830
I851
sS'"puppy:kitten"'
p831
I852
sS'"bath:cleanliness"'
p832
I853
sS'"boring:interesting"'
p833
I854
sS'"ribbon:winner"'
p834
I1153
sS'"doctor:cure"'
p835
I856
sS'"prescription:medication"'
p836
I857
sS'"deer:fawn"'
p837
I858
sS'"gas:furnace"'
p838
I859
sS'"cowardly:surrender"'
p839
I1173
sS'"lock:key"'
p840
I861
sS'"body:flesh"'
p841
I1251
sS'"heroin:euphoria"'
p842
I862
sS'"course:destination"'
p843
I750
sS'"murderer:flee"'
p844
I864
sS'"amputation:body"'
p845
I683
sS'"judge:gavel"'
p846
I866
sS'"priest:holy"'
p847
I867
sS'"performance:applause"'
p848
I868
sS'"rest:tiredness"'
p849
I532
sS'"cat:sing"'
p850
I870
sS'"cat:Siamese"'
p851
I871
sS'"ocean:seascape"'
p852
I872
sS'"hat:head"'
p853
I510
sS'"fight:attack"'
p854
I873
sS'"building:wall"'
p855
I874
sS'"broom:sweep"'
p856
I486
sS'"lettuce:salad"'
p857
I876
sS'"paint:house"'
p858
I877
sS'"freedom:infringement"'
p859
I878
sS'"earring:ear"'
p860
I879
sS'"herb:basil"'
p861
I880
sS'"honest:liar"'
p862
I881
sS'"baby:helpless"'
p863
I813
sS'"debtor:pay"'
p864
I882
sS'"ball:sport"'
p865
I883
sS'"barrio:community"'
p866
I884
sS'"owner:deed"'
p867
I885
sS'"fork:eat"'
p868
I205
sS'"biography:celebrity"'
p869
I887
sS'"lower:volume"'
p870
I888
sS'"mica:mineral"'
p871
I825
sS'"illness:discomfort"'
p872
I208
sS'"happiness:smile"'
p873
I891
sS'"awake:sleep"'
p874
I892
sS'"pitch:baseball"'
p875
I893
sS'"cook:eat"'
p876
I894
sS'"death:coffin"'
p877
I895
sS'"expert:knowledge"'
p878
I896
sS'"ocean:land"'
p879
I897
sS'"cement:solid"'
p880
I899
sS'"donate:charity"'
p881
I900
sS'"call:phone"'
p882
I901
sS'"fireplace:fire"'
p883
I602
sS'"dance:silence"'
p884
I902
sS'"adult:career"'
p885
I903
sS'"broom:sweeper"'
p886
I904
sS'"insured:policy"'
p887
I869
sS'"house:bedroom"'
p888
I906
sS'"lion:roar"'
p889
I907
sS'"parenthood:pride"'
p890
I908
sS'"hurt:kill"'
p891
I1128
sS'"infant:understand"'
p892
I910
sS'"prison:release"'
p893
I911
sS'"rain:dryness"'
p894
I912
sS'"adoration:hatred"'
p895
I913
sS'"library:reading"'
p896
I889
sS'"corpse:death"'
p897
I914
sS'"coast:east"'
p898
I1180
sS'"case:evidence"'
p899
I916
sS'"meat:ham"'
p900
I917
sS'"chopping:cooking"'
p901
I918
sS'"orange:juice"'
p902
I919
sS'"height:low"'
p903
I920
sS'"miscarriage:fetus"'
p904
I922
sS'"bed:hotel"'
p905
I923
sS'"food:meal"'
p906
I924
sS'"programmer:computer"'
p907
I44
sS'"license:driver"'
p908
I926
sS'"freezer:ice"'
p909
I927
sS'"joy:depression"'
p910
I928
sS'"bright:dark"'
p911
I784
sS'"movie:film"'
p912
I929
sS'"drink:hydrate"'
p913
I930
sS'"bed:sleep"'
p914
I931
sS'"office:desk"'
p915
I932
sS'"parent:hate"'
p916
I933
sS'"fish:aquarium"'
p917
I934
sS'"bible:salvation"'
p918
I935
sS'"increment:number"'
p919
I936
sS'"pitcher:baseball"'
p920
I22
sS'"adult:baby"'
p921
I938
sS'"lender:borrower"'
p922
I939
sS'"minute:second"'
p923
I940
sS'"glass:bowl"'
p924
I343
sS'"act:play"'
p925
I943
sS'"preservative:salt"'
p926
I456
sS'"play:instrument"'
p927
I945
sS'"absolve:sinner"'
p928
I1322
sS'"hair:fish"'
p929
I946
sS'"celebrity:privacy"'
p930
I947
sS'"grape:vine"'
p931
I389
sS'"knife:cut"'
p932
I949
sS'"rain:damp"'
p933
I950
sS'"atmosphere:gas"'
p934
I951
sS'"movement:speed"'
p935
I952
sS'"quiet:noisy"'
p936
I953
sS'"instrument:flute"'
p937
I422
sS'"heat:sweat"'
p938
I955
sS'"clock:hand"'
p939
I956
sS'"fight:defend"'
p940
I957
sS'"baby:mature"'
p941
I958
sS'"bulb:flashlight"'
p942
I959
sS'"hilarity:laugh"'
p943
I701
sS'"hunt:deer"'
p944
I447
sS'"anatomy:body"'
p945
I961
sS'"picture:frame"'
p946
I963
sS'"church:prayer"'
p947
I964
sS'"laugh:hilarity"'
p948
I965
sS'"accept:reject"'
p949
I982
sS'"professor:student"'
p950
I968
sS'"baby:adult"'
p951
I969
sS'"experience:confidence"'
p952
I970
sS'"breakfast:morning"'
p953
I780
sS'"house:tent"'
p954
I971
sS'"deafness:hearing"'
p955
I768
sS'"factory:product"'
p956
I973
sS'"refinery:oil"'
p957
I673
sS'"happiness:joy"'
p958
I975
sS'"lawyer:justice"'
p959
I976
sS'"head:hood"'
p960
I28
sS'"camera:photograph"'
p961
I978
sS'"north:south"'
p962
I979
sS'"cat:mouse"'
p963
I1053
sS'"hole:circle"'
p964
I123
sS'"calculator:add"'
p965
I828
sS'"client:attorney"'
p966
I981
sS'"dollar:purchase"'
p967
I620
sS'"outline:composition"'
p968
I983
sS'"deaf:hearing"'
p969
I984
sS'"electricity:lamp"'
p970
I985
sS'"hall:music"'
p971
I638
sS'"publishing:writing"'
p972
I987
sS'"anxiety:breathe"'
p973
I70
sS'"cold:icy"'
p974
I988
sS'"ocean:water"'
p975
I989
sS'"fish:hair"'
p976
I990
sS'"beach:sand"'
p977
I668
sS'"pen:writer"'
p978
I992
sS'"fix:broken"'
p979
I993
sS'"baseboard:wall"'
p980
I618
sS'"anger:yell"'
p981
I995
sS'"athlete:record"'
p982
I996
sS'"garment:skirt"'
p983
I474
sS'"field:meadow"'
p984
I998
sS'"board:nail"'
p985
I986
sS'"award:winner"'
p986
I1000
sS'"heat:warm"'
p987
I215
sS'"mouse:computer"'
p988
I1002
sS'"milk:carton"'
p989
I837
sS'"hostage:freedom"'
p990
I1004
sS'"grape:raisin"'
p991
I1005
sS'"history:account"'
p992
I1006
sS'"artist:masterpiece"'
p993
I1007
sS'"nice:mean"'
p994
I402
sS'"remote:television"'
p995
I77
sS'"look:glare"'
p996
I1010
sS'"cylinder:bottle"'
p997
I1011
sS'"antibiotic:infection"'
p998
I1013
sS'"poor:shop"'
p999
I73
sS'"hem:skirt"'
p1000
I570
sS'"borrow:bank"'
p1001
I1016
sS'"apple:tree"'
p1002
I1017
sS'"buy:own"'
p1003
I1018
sS'"bouquet:garden"'
p1004
I1019
sS'"cat:bark"'
p1005
I1020
sS'"advertise:promote"'
p1006
I1021
sS'"frown:sadness"'
p1007
I1022
sS'"dog:furry"'
p1008
I1023
sS'"narrative:epilogue"'
p1009
I1024
sS'"boy:man"'
p1010
I1025
sS'"face:profile"'
p1011
I1026
sS'"nail:hammer"'
p1012
I1027
sS'"ditch:road"'
p1013
I1028
sS'"ingestion:digestion"'
p1014
I1029
sS'"noise:silence"'
p1015
I1030
sS'"agenda:routine"'
p1016
I1031
sS'"referee:whistle"'
p1017
I1032
sS'"fire:barbeque"'
p1018
I1033
sS'"gasoline:fuel"'
p1019
I1034
sS'"astronaut:space"'
p1020
I1035
sS'"dresser:clothes"'
p1021
I954
sS'"Indian:ocean"'
p1022
I1037
sS'"parent:child"'
p1023
I1038
sS'"kiss:passion"'
p1024
I1039
sS'"ignite:burn"'
p1025
I1040
sS'"map:city"'
p1026
I1041
sS'"purchase:possess"'
p1027
I1042
sS'"maid:broom"'
p1028
I1043
sS'"buckle:strap"'
p1029
I740
sS'"gambler:millionaire"'
p1030
I1044
sS'"ice:water"'
p1031
I1045
sS'"glove:hand"'
p1032
I1046
sS'"blemish:skin"'
p1033
I1047
sS'"down:up"'
p1034
I1048
sS'"bolt:nut"'
p1035
I1049
sS'"book:novel"'
p1036
I1050
sS'"cigarette:smoke"'
p1037
I1051
sS'"gestation:development"'
p1038
I1052
sS'"hair:brush"'
p1039
I405
sS'"forest:clearing"'
p1040
I1054
sS'"love:apathy"'
p1041
I1055
sS'"education:student"'
p1042
I646
sS'"makeup:face"'
p1043
I811
sS'"darkness:light"'
p1044
I1087
sS'"literature:book"'
p1045
I1205
sS'"kiss:love"'
p1046
I1056
sS'"assault:injure"'
p1047
I1058
sS'"light:dark"'
p1048
I1059
sS'"learn:skill"'
p1049
I1060
sS'"resistant:stop"'
p1050
I1061
sS'"coat:warmth"'
p1051
I179
sS'"musician:sing"'
p1052
I1063
sS'"pale:tan"'
p1053
I1064
sS'"account:history"'
p1054
I1065
sS'"aquarium:fish"'
p1055
I1066
sS'"response:stimulus"'
p1056
I1067
sS'"kiss:passionate"'
p1057
I1068
sS'"finger:ring"'
p1058
I1069
sS'"mend:clothing"'
p1059
I1070
sS'"foot:toe"'
p1060
I1071
sS'"boy:gender"'
p1061
I1072
sS'"clothing:shirt"'
p1062
I617
sS'"driver:license"'
p1063
I1057
sS'"porch:house"'
p1064
I1176
sS'"book:story"'
p1065
I1074
sS'"coldness:shiver"'
p1066
I1075
sS'"queen:throne"'
p1067
I1076
sS'"lie:dishonesty"'
p1068
I1077
sS'"pond:bowl"'
p1069
I1078
sS'"ring:bride"'
p1070
I1079
sS'"musician:applause"'
p1071
I1080
sS'"appliance:fridge"'
p1072
I1081
sS'"chisel:tool"'
p1073
I948
sS'"note:symphony"'
p1074
I1082
sS'"injure:assault"'
p1075
I1084
sS'"proprietor:customer"'
p1076
I1085
sS'"right:wrong"'
p1077
I1086
sS'"depression:mind"'
p1078
I1012
sS'"boredom:repetition"'
p1079
I1088
sS'"learn:study"'
p1080
I1089
sS'"dance:step"'
p1081
I1090
sS'"ice:cold"'
p1082
I836
sS'"kitten:cat"'
p1083
I1092
sS'"dermatology:skin"'
p1084
I1093
sS'"conception:birth"'
p1085
I844
sS'"ring:finger"'
p1086
I512
sS'"compost:fertilizer"'
p1087
I1096
sS'"repetition:boredom"'
p1088
I1097
sS'"license:drive"'
p1089
I944
sS'"mechanic:car"'
p1090
I1099
sS'"fire:arsonist"'
p1091
I1100
sS'"faucet:pipe"'
p1092
I1101
sS'"flour:bread"'
p1093
I1102
sS'"diploma:student"'
p1094
I1103
sS'"purchase:shop"'
p1095
I428
sS'"history:past"'
p1096
I1105
sS'"evidence:case"'
p1097
I1106
sS'"depression:joy"'
p1098
I1107
sS'"moon:full"'
p1099
I424
sS'"fragile:break"'
p1100
I1109
sS'"plot:garden"'
p1101
I1110
sS'"instruct:subordinate"'
p1102
I1111
sS'"police:gun"'
p1103
I1112
sS'"battery:flashlight"'
p1104
I1113
sS'"blender:puree"'
p1105
I1114
sS'"notebook:paper"'
p1106
I1115
sS'"film:drama"'
p1107
I650
sS'"chemical:firework"'
p1108
I1117
sS'"dog:companionship"'
p1109
I1118
sS'"artwork:sculpture"'
p1110
I1119
sS'"push:shove"'
p1111
I1120
sS'"playground:slide"'
p1112
I1121
sS'"farming:harvesting"'
p1113
I1122
sS'"nail:screwdriver"'
p1114
I1123
sS'"clothes:dresser"'
p1115
I1124
sS'"book:magazine"'
p1116
I1125
sS'"insomnia:sleep"'
p1117
I1126
sS'"airplane:fly"'
p1118
I770
sS'"infertility:reproduction"'
p1119
I352
sS'"pace:running"'
p1120
I164
sS'"high:low"'
p1121
I643
sS'"candy:sweet"'
p1122
I1130
sS'"mammal:gorilla"'
p1123
I1132
sS'"clothes:iron"'
p1124
I1170
sS'"bigot:hateful"'
p1125
I1133
sS'"remote:tv"'
p1126
I1134
sS'"meal:dessert"'
p1127
I1135
sS'"church:preacher"'
p1128
I1136
sS'"father:family"'
p1129
I406
sS'"day:darkness"'
p1130
I1270
sS'"preacher:congregation"'
p1131
I711
sS'"abbey:nun"'
p1132
I505
sS'"door:close"'
p1133
I1140
sS'"forgive:sin"'
p1134
I1141
sS'"dish:bowl"'
p1135
I1142
sS'"capture:villain"'
p1136
I1143
sS'"education:ignorance"'
p1137
I408
sS'"recipe:ingredient"'
p1138
I1145
sS'"physician:degree"'
p1139
I942
sS'"cruel:help"'
p1140
I1147
sS'"play:enjoy"'
p1141
I125
sS'"hit:aggressive"'
p1142
I1149
sS'"chair:leg"'
p1143
I1150
sS'"drop:slippery"'
p1144
I1152
sS'"drink:wine"'
p1145
I1211
sS'"infidelity:divorce"'
p1146
I1155
sS'"joy:sadness"'
p1147
I1156
sS'"capsule:medicine"'
p1148
I1157
sS'"alcohol:drunkenness"'
p1149
I1036
sS'"diaper:baby"'
p1150
I974
sS'"cherry:red"'
p1151
I1160
sS'"computer:compute"'
p1152
I1161
sS'"clean:house"'
p1153
I1162
sS'"employee:paycheck"'
p1154
I1163
sS'"boat:motor"'
p1155
I1164
sS'"marriage:license"'
p1156
I425
sS'"menu:chef"'
p1157
I1166
sS'"loss:grief"'
p1158
I1167
sS'"herd:elephant"'
p1159
I401
sS'"patient:pressure"'
p1160
I1169
sS'"incubation:growth"'
p1161
I967
sS'"garage:car"'
p1162
I1171
sS'"preacher:parishioner"'
p1163
I1172
sS'"flexible:bent"'
p1164
I430
sS'"discipline:abuse"'
p1165
I1174
sS'"fight:enemy"'
p1166
I1175
sS'"chef:cook"'
p1167
I1073
sS'"flood:water"'
p1168
I1177
sS'"map:journey"'
p1169
I1178
sS'"clergyman:sin"'
p1170
I1306
sS'"athlete:medal"'
p1171
I475
sS'"funeral:coffin"'
p1172
I1181
sS'"question:suspect"'
p1173
I1182
sS'"pool:water"'
p1174
I1183
sS'"infinite:end"'
p1175
I1184
sS'"duck:duckling"'
p1176
I1185
sS'"clothing:sock"'
p1177
I1187
sS'"appliance:refrigerator"'
p1178
I1188
sS'"dresser:wardrobe"'
p1179
I1189
sS'"pop:fizzy"'
p1180
I1191
sS'"dig:ditch"'
p1181
I1192
sS'"read:book"'
p1182
I1193
sS'"foreword:novel"'
p1183
I1194
sS'"insult:forgive"'
p1184
I1195
sS'"burn:flammable"'
p1185
I1196
sS'"paint:picture"'
p1186
I1129
sS'"paint:artistic"'
p1187
I1197
sS'"fuel:gasoline"'
p1188
I863
sS'"clothing:figure"'
p1189
I1116
sS'"heart:beat"'
p1190
I1199
sS'"automobile:trunk"'
p1191
I1200
sS'"bullet:gun"'
p1192
I1201
sS'"car:Honda"'
p1193
I1202
sS'"instrument:clarinet"'
p1194
I1203
sS'"army:soldier"'
p1195
I1204
sS'"artist:paint"'
p1196
I400
sS'"man:woman"'
p1197
I636
sS'"beautiful:ugly"'
p1198
I1207
sS'"honey:sweetness"'
p1199
I214
sS'"glass:silicone"'
p1200
I1209
sS'"chimpanzee:gorilla"'
p1201
I1210
sS'"rage:happiness"'
p1202
I753
sS'"fat:exercise"'
p1203
I1212
sS'"miscarriage:pregnancy"'
p1204
I1213
sS'"couch:arm"'
p1205
I1214
sS'"baby:bottle"'
p1206
I1216
sS'"flashlight:bulb"'
p1207
I1217
sS'"fill:emptiness"'
p1208
I1218
sS'"politician:office"'
p1209
I1219
sS'"nun:chastity"'
p1210
I1220
sS'"bank:river"'
p1211
I1222
sS'"degree:lawyer"'
p1212
I1223
sS'"princess:tiara"'
p1213
I1224
sS'"education:enlightenment"'
p1214
I1225
sS'"graduation:diploma"'
p1215
I102
sS'"aversion:hatred"'
p1216
I96
sS'"grant:scientist"'
p1217
I1227
sS'"deposit:balance"'
p1218
I1228
sS'"orchard:apple"'
p1219
I1229
sS'"dim:light"'
p1220
I757
sS'"night:day"'
p1221
I1231
sS'"pen:write"'
p1222
I972
sS'"bedroom:bed"'
p1223
I1233
sS'"famine:food"'
p1224
I1234
sS'"operate:machine"'
p1225
I1235
sS'"arrhythmia:heartbeat"'
p1226
I977
sS'"hem:shorten"'
p1227
I1237
sS'"long:short"'
p1228
I1238
sS'"masterpiece:artist"'
p1229
I999
sS'"chair:furniture"'
p1230
I1240
sS'"germ:disease"'
p1231
I1241
sS'"cat:animal"'
p1232
I1243
sS'"ocean:Pacific"'
p1233
I1244
sS'"rabbit:hop"'
p1234
I1245
sS'"apple:food"'
p1235
I1246
sS'"rich:poor"'
p1236
I1247
sS'"computer:mouse"'
p1237
I1248
sS'"kitten:puppy"'
p1238
I1249
sS'"electricity:tv"'
p1239
I1198
sS'"factory:car"'
p1240
I345
sS'"hill:ramp"'
p1241
I1252
sS'"cook:meal"'
p1242
I1253
sS'"boring:fun"'
p1243
I209
sS'"port:starboard"'
p1244
I1255
sS'"owner:property"'
p1245
I1256
sS'"instrument:piano"'
p1246
I1257
sS'"driver:truck"'
p1247
I1258
sS'"playbook:football"'
p1248
I1259
sS'"development:plan"'
p1249
I1260
sS'"good:wrong"'
p1250
I1154
sS'"grief:happiness"'
p1251
I1165
sS'"bicycle:wheel"'
p1252
I1261
sS'"friend:betray"'
p1253
I1262
sS'"medicine:disease"'
p1254
I1263
sS'"full:moon"'
p1255
I1264
sS'"gardener:trowel"'
p1256
I1265
sS'"boost:price"'
p1257
I991
sS'"lock:security"'
p1258
I962
sS'"gift:recipient"'
p1259
I1268
sS'"button:shirt"'
p1260
I905
sS'"food:season"'
p1261
I1269
sS'"house:kitchen"'
p1262
I1158
sS'"furniture:desk"'
p1263
I1271
sS'"musician:instrument"'
p1264
I117
sS'"preach:parishioner"'
p1265
I1272
sS'"idea:patent"'
p1266
I1273
sS'"closet:clothes"'
p1267
I670
sS'"dish:soap"'
p1268
I1274
sS'"car:road"'
p1269
I224
sS'"lamp:shade"'
p1270
I1276
sS'"pain:medicate"'
p1271
I1277
sS'"bad:good"'
p1272
I1278
sS'"exercise:fitness"'
p1273
I1091
sS'"mailbox:flag"'
p1274
I1279
sS'"currency:dollar"'
p1275
I1280
sS'"money:paper"'
p1276
I1281
sS'"paper:pencil"'
p1277
I1282
sS'"funeral:family"'
p1278
I1283
sS'"audition:actor"'
p1279
I1284
sS'"eater:food"'
p1280
I1285
sS'"combustion:fire"'
p1281
I1286
sS'"inhale:smell"'
p1282
I865
sS'"execute:criminal"'
p1283
I1287
sS'"baby:dance"'
p1284
I1288
sS'"plum:prune"'
p1285
I1289
sS'"crash:wave"'
p1286
I1290
sS'"plain:flat"'
p1287
I1291
sS'"child:adult"'
p1288
I1292
sS'"competition:athlete"'
p1289
I1293
sS'"female:male"'
p1290
I1294
sS'"person:girl"'
p1291
I1295
sS'"car:fast"'
p1292
I1104
sS'"library:books"'
p1293
I1297
sS'"crawl:rapid"'
p1294
I1298
sS'"pod:whale"'
p1295
I1094
sS'"adulthood:responsibility"'
p1296
I1300
sS'"plain:tree"'
p1297
I1301
sS'"duckling:duck"'
p1298
I1302
sS'"disease:medicate"'
p1299
I1303
sS'"goal:score"'
p1300
I622
sS'"mother:father"'
p1301
I1305
sS'"analysis:intelligent"'
p1302
I1179
sS'"parrot:bird"'
p1303
I1307
sS'"bedroom:mattress"'
p1304
I1308
sS'"picture:drawing"'
p1305
I1309
sS'"home:foyer"'
p1306
I1310
sS'"lust:passionate"'
p1307
I1311
sS'"camel:ocean"'
p1308
I1239
sS'"baby:family"'
p1309
I1312
sS'"container:jug"'
p1310
I1313
sS'"bottle:cylinder"'
p1311
I1314
sS'"nail:board"'
p1312
I1315
sS'"liquid:solid"'
p1313
I1098
sS'"disgrace:embarrassment"'
p1314
I1316
sS'"collect:fee"'
p1315
I1317
sS'"band:musician"'
p1316
I1304
sS'"rage:irritation"'
p1317
I1318
sS'"dense:sink"'
p1318
I1319
sS'"kitchen:oven"'
p1319
I1320
sS'"pet:cat"'
p1320
I1321
sS'"calm:scream"'
p1321
I283
sS'"food:apple"'
p1322
I464
sS'"interior:exterior"'
p1323
I479
sS'"pain:agony"'
p1324
I1324
sS'"fix:addict"'
p1325
I886
sS'"embarrassed:blush"'
p1326
I1325
sS'"obesity:exercise"'
p1327
I1326
s.